                                ;*** AILZ80ASM *** Z-80 Assembler, version 1.0.31.0, LST:Full:4
                                ; @title CT-ARK2 Menu.
                                ; @auther Harumakkin
                                
                                ; bios
       000C                     B_RDSLT             equ 0x000C  ;; BIOS: 指定スロットの指定アドレスの値を読みだす A=スロット、HL=アドレス、変更レジスタAF、BC、DE
       0014                     B_WRSLT             equ 0x0014  ;; BIOS: 指定スロットの指定アドレスへ値を書き込む A=スロット、HL=アドレス、E=値、変更レジスタAF,BC,D
       0024                     B_ENASLT            equ 0x0024  ;; BIOS: 指定ページを指定スロットに切り替える
       00C3                     B_CLS               equ 0x00C3  ;; BIOS: 画面クリア 入力=ゼロフラグセット
       00A2                     B_CHPUT             equ 0x00A2  ;; BIOS: 1文字表示 入力A=出力する文字コード
       009F                     B_CHGET             equ 0x009F  ;; BIOS: 1文字入力 (入力待ちあり), 出力A=入力された文字コード
       00C6                     B_POSIT             equ 0x00C6  ;; BIOS: カーソルの移動, 入力H=カーソルのX座標, L=Y座標
       0156                     B_KILBUF            equ 0x0156  ;; BIOS: キーバッファのクリア
       00C0                     B_BEEP              equ 0x00C0  ;; BIOS: BEEP音を鳴らす（全レジスタ使用）
       0180                     B_CHGCPU            equ 0x0180  ;; BIOD: CPU切り換え
       005C                     B_LDIRVM            equ 0x005C  ;; BIOS; メモリからVRAMヘデータをブロック転送する
                                
                                ; system's workarea
       FC9E                     W_JIFFY             equ 0xFC9E  ;; 
       002D                     MAINROMVER          equ 0x002D  ;; MAIN ROM Version, 0=MSX, 1=MSX2, 2=MSX2+, 3=MSXtR
                                
                                ; keycode
       001E                     KEY_UP              equ 0x1E
       001C                     KEY_RIGHT           equ 0x1C
       001D                     KEY_LEFT            equ 0x1D
       001F                     KEY_DOWN            equ 0x1F
       001B                     KEY_ESC             equ 0x1B
       000B                     KEY_CLS             equ 0x0B
       000D                     KEY_RETURN          equ 0x0D
       0009                     KEY_TAB             equ 0x09
       0008                     KEY_BS              equ 0x08
       007F                     KEY_DEL             equ 0x7f
                                
                                ; command
       0000                     IFCMD:
       0000                         .NONE               equ 0x00
       0001                         .UPDATE_INFO        equ 0x01
       0002                         .UPDATE_FILELIST    equ 0x02
       0003                         .REQ_FILELIST       equ 0x03
       0004                         .SET_ROM            equ 0x04
       0005                         .DEL_ROMFILE        equ 0x05
       0006                         .WR_FILE            equ 0x06
       0007                         .BAS2ROM            equ 0x07
       0008                         .STORE_ROM          equ 0x08
       0009                         .SET_FREQ           equ 0x09
       000A                         .CLEAR_E_PAPER      equ 0x0A
       000B                         .PRINT_E_PAPER      equ 0x0B
                                
       0012                     SIZE_FILERECORD     equ 18      ; sizeof(MSXPICOIF_FILERECORD)
                                
       0000                     SETROMTYPE:
       0030                         .NONE               equ '0'
       0031                         .CTARKMENU          equ '1'
       0032                         .MAPPERERAM         equ '2'
       0061                         .ROM_PAGE_0         equ 'a' ; ROMTYPEというより格納先頭ページは何かを示している。
       0062                         .ROM_PAGE_1         equ 'b' ; 占有する領域サイズは、指定したファイルサイズで決まる。
       0063                         .ROM_PAGE_2         equ 'c' ; PAGE0を選択しても対象ファイルが16KBならPAGE0で収まるし、
       0064                         .ROM_PAGE_3         equ 'd' ; 64KBなら、PAGE0-3を占有する。
       0065                         .MSXDOS2_320KB      equ 'e' ; PICO RAM上でASCII8Kの動作
       0066                         .ASC8K_RAM          equ 'f' ; PICO RAM上での動作
       0067                         .ASC16K_RAM         equ 'g' ; PICO RAM上でASCII16Kの動作
       0068                         .ASC8K_FLASHROM     equ 'h' ; PICO FlushROM上でASCII8Kの動作（384KB以下の場合ははRAM動作になる）
       0069                         .ASC16K_FLASHROM    equ 'i' ; PICO FlushROM上でASCII16Kの動作（384KB以下の場合ははRAM動作になる）
       006A                         .NEXTOR128KB_256KB  equ 'j' ; NEXTORカーネル128KB + MapperRAM(256KB)
       006B                         .RTYPE              equ 'k' ; ASCII16K(RTYPE)
                                    ; .KONAMI8K         equ '?'
                                    ; .KONAMISCC        equ '?'
                                    ; .KONAMISCCI       equ '?'
                                
                                ;選択カーソル文字
       0021                     CURSOR_CHAR         equ 0x21
       0022                     ARROW_CHAR          equ 0x22
       0020                     BLANK_CHAR          equ ' '
                                
                                
                                ;================================================================================================
                                ; MSX ROMヘッダ領域
                                ;================================================================================================
000000 4000                     org 0x4000
       4000                     rom_header:
000000 4000 4142                    db      "AB"
000002 4002 8A41                    dw      START_CT_ARK        ;; INIT
000004 4004 0000                    dw      0x0000              ;; STATEMENT
000006 4006 0000                    dw      0x0000              ;; DEVICE
000008 4008 0000                    dw      0x0000              ;; TEXT
00000A 400A 000000                  db      0x00,0x00,0x00
00000D 400D 000000                  db      0x00,0x00,0x00
                                
                                
                                ;================================================================================================
                                ;================================================================================================
                                
                                ; 右向き三角、右向き矢印文字を作成する
                                ; グラフィック文字 "月","火"を、右向き三角、右向き矢印とする
       4010                     CHARACTERS:
       4010                         .setup
000010 4010 211D40          10          ld      HL, .patterns
000013 4013 110809          10          ld      DE, 0x800 + 8*0x21
000016 4016 011000          10          ld      BC, 8 * 2
000019 4019 CD5C00          17          call    B_LDIRVM
00001C 401C C9              10          ret
       401D                         .patterns
00001D 401D 4060707878706040            db      0x40,0x60,0x70,0x78,0x78,0x70,0x60,0x40
000025 4025 2030F8FCFCF83020            db      0x20,0x30,0xF8,0xFC,0xFC,0xF8,0x30,0x20
                                
       402D                     CTXT:
       0000                         .endc           equ 0x00
       0001                         .fill           equ 0x01    ;; スクリーン全体の塗りつぶし
       0002                         .prints         equ 0x02    ;; 文字列を描く
       0003                         .prints_ptr     equ 0x03    ;; 文字列を描く(文字列はポインタ指定)
       0004                         .chars          equ 0x04    ;; 指定文字を指定数繰り返す
       0005                         .box            equ 0x05    ;; 矩形
       0006                         .boxseph        equ 0x06    ;; 矩形の区切線(水平)
       0007                         .present        equ 0x07    ;; VRAMへ反映
                                    ;
       00FF                         .EOT            equ 0xff    ;; .printsでの終端を示す
                                    ;
       0028                         .SCR_W          equ 40
       0018                         .SCR_H          equ 24
       03C0                         .SCR_SIZE       equ 960     ;; 40*24
                                
       402D                     CTXTF:
       402D                         .xy2addr
                                    ; @param reg.DE :X,Y
                                    ; @return reg.HL :先頭アドレス
00002D 402D D5              11          push    DE
00002E 402E 3E28             7          ld      A, CTXT.SCR_W
000030 4030 CD1353          17          call    MULTI8X8R16     ; HL = A*E;
000033 4033 D1              10          pop     DE
000034 4034 5A               4          ld      E, D
000035 4035 1600             7          ld      D, 0x00
000037 4037 19              11          add     HL, DE          ; 先頭アドレス
000038 4038 11005A          10          ld      DE, CTXTB.buff
00003B 403B 19              11          add     HL, DE
00003C 403C C9              10          ret
                                
                                    ;----------------------------------------------------------
       403D                         .buff_fill
                                    ; 画面バッファのクリア(塗りつぶし)
                                    ; @param reg.A:塗りつぶすキャラクタ文字
00003D 403D 21005A          10          ld      HL, CTXTB.buff
000040 4040 11015A          10          ld      DE, CTXTB.buff+1
000043 4043 01BF03          10          ld      BC, CTXT.SCR_SIZE-1
000046 4046 77               7          ld      (HL), A
000047 4047 EDB0                        ldir
000049 4049 C9              10          ret
                                    ;----------------------------------------------------------
       404A                         .buff_print
                                    ; 画面バッファの指定位置に文字列を書き込む
                                    ; @param reg.DE :X,Y
                                    ; @param reg.HL :文字列へのポインタ(0x00終端)
                                    ; @return reg.HL :文字列の終端の次を示すポインタ
00004A 404A E5              11          push    HL
00004B 404B CD2D40          17          call    .xy2addr        ; HL=先頭アドレス
00004E 404E 54               4          ld      D, H
00004F 404F 5D               4          ld      E, L
000050 4050 E1              10          pop     HL
       4051                         .@@
000051 4051 7E               7          ld      A, (HL)
000052 4052 B7               4          or      A
000053 4053 2805            12          jr      z, .@@F
000055 4055 12               7          ld      (DE), A
000056 4056 23               6          inc     HL
000057 4057 13               6          inc     DE
000058 4058 18F7            12          jr      .@@B
       405A                         .@@
00005A 405A 23               6          inc     HL
00005B 405B C9              10          ret
                                    ;----------------------------------------------------------
       405C                         .buff_put_char
                                    ; 画面バッファの指定位置に指定キャラクタを書き込む
                                    ; @param reg.DE :X,Y
                                    ; @param reg.A :キャラクタ文字
00005C 405C F5              11          push    AF
00005D 405D CD2D40          17          call    .xy2addr        ; HL=先頭アドレス
000060 4060 F1              10          pop     AF
       4061                         .@@
000061 4061 77               7          ld      (HL), A
000062 4062 C9              10          ret
                                
                                    ;----------------------------------------------------------
       4063                         .buff_chars
                                    ; 画面バッファの指定位置から指定のキャラクタで塗りつぶし
                                    ; @param reg.DE :X,Y
                                    ; @param reg.A :塗つぶしキャラクタ文字
                                    ; @param reg.B :塗りつぶす文字数
000063 4063 48               4          ld      C, B
000064 4064 F5              11          push    AF
000065 4065 CD2D40          17          call    .xy2addr        ; HL=先頭アドレス
000068 4068 41               4          ld      B, C
000069 4069 F1              10          pop     AF
       406A                         .@@
00006A 406A 77               7          ld      (HL), A
00006B 406B 23               6          inc     HL
00006C 406C 10FC            13          djnz    .@@B
00006E 406E C9              10          ret
                                    ;----------------------------------------------------------
       406F                         .buff_box
                                    ; 画面バッファの指定位置に矩形を書き込む(矩形内は0x20の空白)
                                    ; @param reg.DE :X,Y
                                    ; @param reg.BC :lenX, lenY  角は含まない長さであり、必ず1以上を指定する  ┏━┓の場合は、lenX=1である。
00006F 406F C5              11          push    BC
000070 4070 CD2D40          17          call    .xy2addr        ; HL=先頭アドレス
                                        ; "┏"
000073 4073 3E18             7          ld      A, 0x18
000075 4075 77               7          ld      (HL),A
                                        ; "━"
000076 4076 3E17             7          ld      A, 0x17
000078 4078 C1              10          pop     BC
000079 4079 E5              11          push    HL
00007A 407A C5              11          push    BC
       407B                         .@1
00007B 407B 23               6          inc     HL
00007C 407C 77               7          ld      (HL),A
00007D 407D 10FC            13          djnz    .@1
                                        ; "┓"
00007F 407F 23               6          inc     HL
000080 4080 3E19             7          ld      A, 0x19
000082 4082 77               7          ld      (HL),A
000083 4083 C1              10          pop     BC
000084 4084 E1              10          pop     HL
       4085                         .@2
000085 4085 112800          10          ld      DE, CTXT.SCR_W  ; to next line.
000088 4088 19              11          add     HL, DE
000089 4089 E5              11          push    HL
00008A 408A C5              11          push    BC
                                        ; "┃"
00008B 408B 3E16             7          ld      A, 0x16
00008D 408D 77               7          ld      (HL), A
                                        ; " "
00008E 408E 3E20             7          ld      A, ' '
       4090                         .@3
000090 4090 23               6          inc     HL
000091 4091 77               7          ld      (HL), A
000092 4092 10FC            13          djnz    .@3
                                        ; "┃"
000094 4094 23               6          inc     HL
000095 4095 3E16             7          ld      A, 0x16
000097 4097 77               7          ld      (HL), A
000098 4098 C1              10          pop     BC
000099 4099 79               4          ld      A, C
00009A 409A 3D               4          dec     A
00009B 409B 4F               4          ld      C, A
00009C 409C E1              10          pop     HL
00009D 409D 20E6            12          jr      nz, .@2
                                        ;
00009F 409F 112800          10          ld      DE, CTXT.SCR_W  ; to next line.
0000A2 40A2 19              11          add     HL, DE
                                        ; "┗"
0000A3 40A3 3E1A             7          ld      A, 0x1A
0000A5 40A5 77               7          ld      (HL),A
                                        ; "━"
0000A6 40A6 3E17             7          ld      A, 0x17
       40A8                         .@4
0000A8 40A8 23               6          inc     HL
0000A9 40A9 77               7          ld      (HL),A
0000AA 40AA 10FC            13          djnz    .@4
                                        ; "┛"
0000AC 40AC 23               6          inc     HL
0000AD 40AD 3E1B             7          ld      A, 0x1B
0000AF 40AF 77               7          ld      (HL),A
0000B0 40B0 C9              10          ret
                                    ;----------------------------------------------------------
       40B1                         .buff_boxseph
                                    ; 画面バッファの指定位置に矩形用のセパレータ線（┣━┫）を書き込む（┣━┫）
                                    ; @param reg.DE :開始点座標 X,Y
                                    ; @param reg.B :端含まない長さであり、必ず1以上を指定する  ex)┣━━━┫では、lenX=3である。
                                    ;
0000B1 40B1 C5              11          push    BC
0000B2 40B2 CD2D40          17          call    .xy2addr        ; HL=先頭アドレス
                                        ; "┣"
0000B5 40B5 3E14             7          ld      A, 0x14
0000B7 40B7 77               7          ld      (HL),A
                                        ; "━"
0000B8 40B8 3E17             7          ld      A, 0x17
0000BA 40BA C1              10          pop     BC
       40BB                         .@1
0000BB 40BB 23               6          inc     HL
0000BC 40BC 77               7          ld      (HL),A
0000BD 40BD 10FC            13          djnz    .@1
                                        ; "┫"
0000BF 40BF 23               6          inc     HL
0000C0 40C0 3E13             7          ld      A, 0x13
0000C2 40C2 77               7          ld      (HL),A
0000C3 40C3 C9              10          ret
                                
                                    ;----------------------------------------------------------
                                    ; BCレジスタの値を4桁の16進数に変換して書き込む
       40C4                         .buff_print4hex
                                    ; @param reg.BC :16ビット値
                                    ; @param reg.DE :座標 X,Y
                                    ;
0000C4 40C4 C5              11          push    BC
0000C5 40C5 CD2D40          17          call    .xy2addr        ; HL=先頭アドレス <- DE:座標
0000C8 40C8 C1              10          pop     BC
0000C9 40C9 CDFD4F          17          call    HEX16TOSTR      ; AF,BC,DE,HL,IX
0000CC 40CC C9              10          ret
                                
                                    ;----------------------------------------------------------
       40CD                         .buff_present
                                    ; メインメモリ内のスクリーンバッファの内容をVRAMへ転送する
0000CD 40CD 21005A          10          ld      HL, CTXTB.buff
0000D0 40D0 110000          10          ld      DE, 0x0000
0000D3 40D3 01C003          10          ld      BC, CTXT.SCR_SIZE
0000D6 40D6 CD5C00          17          call    B_LDIRVM
0000D9 40D9 C9              10          ret
                                
                                    ;----------------------------------------------------------
       40DA                         .buff_present_backroll
                                    ; メインメモリ内のスクリーンバッファの内容をVRAMへ転送する
                                    ; (画面下方から上に向かって転送する)
0000DA 40DA DD219EFC        14          ld      IX, W_JIFFY
0000DE 40DE DD4E00          19          ld      C, (IX+0)
0000E1 40E1 21985D          10          ld      HL, CTXTB.buff + (CTXT.SCR_H-1)*CTXT.SCR_W
0000E4 40E4 119803          10          ld      DE, (CTXT.SCR_H-1)*CTXT.SCR_W
0000E7 40E7 060C             7          ld      B, CTXT.SCR_H/2
       40E9                         .@1
0000E9 40E9 C5              11          push    BC
0000EA 40EA CDFD40          17          call    .@3
0000ED 40ED CDFD40          17          call    .@3
0000F0 40F0 C1              10          pop     BC
0000F1 40F1 79               4          ld      A, C
       40F2                         .@2
0000F2 40F2 DDBE00          19          cp      (IX+0)
0000F5 40F5 28FB            12          jr      z, .@2
0000F7 40F7 DD4E00          19          ld      C, (IX+0)
0000FA 40FA 10ED            13          djnz    .@1
0000FC 40FC C9              10          ret
       40FD                         .@3
0000FD 40FD E5              11          push    HL
0000FE 40FE D5              11          push    DE
0000FF 40FF 012800          10          ld      BC, CTXT.SCR_W
000102 4102 CD5C00          17          call    B_LDIRVM
000105 4105 E1              10          pop     HL
000106 4106 112800          10          ld      DE, CTXT.SCR_W
000109 4109 CD5353          17          call    SUB_HL_DE
00010C 410C 44               4          ld      B, H
00010D 410D 4D               4          ld      C, L
00010E 410E E1              10          pop     HL
00010F 410F CD5353          17          call    SUB_HL_DE
000112 4112 50               4          ld      D, B
000113 4113 59               4          ld      E, C
000114 4114 C9              10          ret
                                
                                    ;----------------------------------------------------------
       4115                         .go_scr
                                    ; 指定した.DESGINデータをもとにスクリーンを描く
                                    ; 温メモリ上に描き、.printsでVRAMに転送される
                                    ; @param reg.HL .DESGINデータの先頭アドレス
                                    ;
       4115                         .@@
000115 4115 7E               7          ld      A, (HL)
000116 4116 F5              11          push    AF
000117 4117 23               6          inc     HL
                                        ;call act_func_table's routines!
000118 4118 CD2041          17          call    .call_act_func
00011B 411B F1              10          pop     AF
00011C 411C B7               4          or      A
00011D 411D 20F6            12          jr      nz, .@@B        ; 次のコマンドへ
00011F 411F C9              10          ret
                                
       4120                         .call_act_func
000120 4120 E5              11          push    HL
000121 4121 6F               4          ld      L,A                 ; A → L
000122 4122 2600             7          ld      H,0                 ; HL = A
000124 4124 29              11          add     HL,HL               ; HL = A * 2（アドレスは2バイトなので×2）
000125 4125 112F41          10          ld      DE,.act_func_table  ; DE = テーブル先頭
000128 4128 19              11          add     HL,DE               ; HL = Table + A*2
000129 4129 5E               7          ld      E,(HL)              ; 低位バイト
00012A 412A 23               6          inc     HL
00012B 412B 56               7          ld      D,(HL)              ; 高位バイト → DE = サブルーチン先頭アドレス
00012C 412C E1              10          pop     HL
00012D 412D D5              11          push    DE
00012E 412E C9              10          ret                         ; = CALL (DE)   サブルーチン先で.call_act_funcの呼び出しもとに帰る仕組み。
                                
       412F                         .act_func_table
00012F 412F 3F41                        dw  .act_endc       ;; .endc        
000131 4131 4041                        dw  .act_fill       ;; .fill        ;; クリア
000133 4133 4841                        dw  .act_prints     ;; .prints      ;; 文字列を描く
000135 4135 5B41                        dw  .act_prints_ptr ;; .prints_ptr  ;; ポインタで指定された文字列を描く
000137 4137 5C41                        dw  .act_chars      ;; .chars       ;; 指定文字を指定数繰り返す
000139 4139 6A41                        dw  .act_box        ;; .box         ;; 矩形
00013B 413B 7841                        dw  .act_boxseph    ;; .boxseph     ;; 矩形の区切線(水平)
00013D 413D 8441                        dw  .act_present    ;; .present     ;; VRAMへ反映
                                
       413F                         .act_endc
                                        ; do nothing
00013F 413F C9              10          ret
                                
       4140                         .act_fill
000140 4140 7E               7          ld      A, (HL)
000141 4141 23               6          inc     HL
000142 4142 E5              11          push    HL
000143 4143 CD3D40          17          call    .buff_fill
000146 4146 E1              10          pop     HL
000147 4147 C9              10          ret
                                
       4148                         .act_prints
000148 4148 5E               7          ld      E, (HL)
000149 4149 23               6          inc     HL
00014A 414A 56               7          ld      D, (HL)
00014B 414B 23               6          inc     HL
       414C                         .@@
00014C 414C D5              11          push    DE
00014D 414D CD4A40          17          call    CTXTF.buff_print
000150 4150 D1              10          pop     DE
000151 4151 7E               7          ld      A, (HL)
000152 4152 FEFF             7          cp      CTXT.EOT        ; 終端だったら終了する
000154 4154 2803            12          jr      z, .@@F
000156 4156 1C               4          inc     E               ; 次の行
000157 4157 18F3            12          jr      .@@B
       4159                         .@@
000159 4159 23               6          inc     HL
00015A 415A C9              10          ret
                                
       415B                         .act_prints_ptr
                                        ; TODO: 未コーディング
                                        ;       座標を読む
                                        ;       アドレスポインタを読む
                                        ;       アドレスポインタが示す文字列を使用する
                                        ;       （文字列が格納されているのではなく、アドレスが格納されているところが.act_printsと異なる。
                                        ;       これにより定型句などの文字列の使いまわしを可能にし、メモリの無駄を省く)
00015B 415B C9              10          ret
                                
       415C                         .act_chars
00015C 415C 5E               7          ld      E, (HL)
00015D 415D 23               6          inc     HL
00015E 415E 56               7          ld      D, (HL)
00015F 415F 23               6          inc     HL
000160 4160 7E               7          ld      A, (HL)
000161 4161 23               6          inc     HL
000162 4162 46               7          ld      B, (HL)
000163 4163 23               6          inc     HL
000164 4164 E5              11          push    HL
000165 4165 CD6340          17          call    .buff_chars
000168 4168 E1              10          pop     HL
000169 4169 C9              10          ret
                                
       416A                         .act_box
00016A 416A 5E               7          ld      E, (HL)
00016B 416B 23               6          inc     HL
00016C 416C 56               7          ld      D, (HL)
00016D 416D 23               6          inc     HL
00016E 416E 4E               7          ld      C, (HL)
00016F 416F 23               6          inc     HL
000170 4170 46               7          ld      B, (HL)
000171 4171 23               6          inc     HL
000172 4172 E5              11          push    HL
000173 4173 CD6F40          17          call    .buff_box
000176 4176 E1              10          pop     HL
000177 4177 C9              10          ret
                                
       4178                         .act_boxseph
000178 4178 5E               7          ld      E, (HL)
000179 4179 23               6          inc     HL
00017A 417A 56               7          ld      D, (HL)
00017B 417B 23               6          inc     HL
00017C 417C 46               7          ld      B, (HL)
00017D 417D 23               6          inc     HL
00017E 417E E5              11          push    HL
00017F 417F CDB140          17          call    .buff_boxseph
000182 4182 E1              10          pop     HL
000183 4183 C9              10          ret
                                    
       4184                         .act_present
000184 4184 E5              11          push    HL
000185 4185 CDCD40          17          call    .buff_present
000188 4188 E1              10          pop     HL
000189 4189 C9              10          ret
                                
                                ;================================================================================================
                                ; プログラムの開始
                                ;================================================================================================
       418A                     START_CT_ARK:
       418A                         .start
00018A 418A 3180F3          10          ld      SP, 0xF380
00018D 418D CD1D43          17          call    CLEAR_SCREEN
000190 4190 CDC043          17          call    SETUP_ENV
000193 4193 CDB54F          17          call    SCREEN0_40x24
000196 4196 CD1040          17          call    CHARACTERS.setup
000199 4199 CD5251          17          call    UPDATE_SDCARD_FILES
                                ;       call    CHANGE_CPU
                                
00019C 419C 3E01             7          ld      A, 1
00019E 419E 32145E          13          ld      (WA_FILES.sel_no), A
0001A1 41A1 3E01             7          ld      A, 1
0001A3 41A3 32175E          13          ld      (WA_FILES.disp_top_fno), A
0001A6 41A6 AF               4          xor     A
0001A7 41A7 32185E          13          ld      (WA_FILES.disp_top_fno+1), A
                                
       41AA                         .screen_start
0001AA 41AA CD4C51          17          call    UPDATE_SYSTEM_INFO
0001AD 41AD CD2443          17          call    CTXT_PRINT_TITLE                ;; VERSION + PICO_CLOCK + BOOT_ROM_NAME
0001B0 41B0 CD6651          17          call    CTXT_PRINT_SDCARD_FILES
0001B3 41B3 CD4942          17          call    .func_initdisp_cur_pos
0001B6 41B6 CD5601          17          call    B_KILBUF                        ;; キーバッファのクリア
                                
       41B9                         .rootmenu_begin                             ;; ルートメニュー（ファイル選択）
0001B9 41B9 CD1C44          17          call    CTXT_PRINT_FILENO               ;; ファイル番号表示＆ファイルサイズ
0001BC 41BC CDCD40          17          call    CTXTF.buff_present
       41BF                         .wait_key                                   ;; キー入力待ち
0001BF 41BF CD2E51          17          call    GET_CHAR
0001C2 41C2 28FB            12          jr      z, .wait_key
0001C4 41C4 CD9444          17          call    FUNC_PRINT_KEYCODE              ;; デバッグ用にキーコードを画面右上に表示する
       41C7                         .chk_ret
0001C7 41C7 FE0D             7          cp      KEY_RETURN
0001C9 41C9 200F            12          jr      nz, .chk_cls
0001CB 41CB CD1244          17          call    GET_FILENO
0001CE 41CE B7               4          or      A
0001CF 41CF 285D            12          jr      z, .mainloop_end
0001D1 41D1 CDD144          17          call    FUNC_ACT_MENU
0001D4 41D4 CD3142          17          call    .refresh_screen_backroll
0001D7 41D7 C3BF41          10          jp      .wait_key
       41DA                         .chk_cls
0001DA 41DA FE0B             7          cp      KEY_CLS
0001DC 41DC 2009            12          jr      nz, .chk_esc
0001DE 41DE CD1D43          17          call    CLEAR_SCREEN            ; ファイルのリスト表示を更新する（わざと画面を全消去して更新を演出する）
0001E1 41E1 CD5251          17          call    UPDATE_SDCARD_FILES     ; 更新を要求
0001E4 41E4 C3AA41          10          jp      .screen_start
       41E7                         .chk_esc
0001E7 41E7 FE1B             7          cp      KEY_ESC
0001E9 41E9 2008            12          jr      nz, .chk_cur_up
0001EB 41EB CDBA4E          17          call    FUNC_SYSTEM_MENU
0001EE 41EE CD3142          17          call    .refresh_screen_backroll
0001F1 41F1 183B            12          jr      .mainloop_end
       41F3                         .chk_cur_up
0001F3 41F3 47               4          ld      B, A
0001F4 41F4 CD5E51          17          call    CHECK_EMPTY_FILES       ; ファイル無しでは以降のカーソル操作は受け付けない
0001F7 41F7 78               4          ld      A, B
0001F8 41F8 28C5            12          jr      z, .wait_key
0001FA 41FA FE1E             7          cp      KEY_UP
0001FC 41FC 2010            12          jr      nz, .chk_cur_down
0001FE 41FE 3A145E          13          ld      A, (WA_FILES.sel_no)
000201 4201 FE01             7          cp      1
000203 4203 CA2E42          10          jp      z, .mainloop_end        ;; 先頭位置なら何もしない
000206 4206 3EFF             7          ld      A, 0xff         ; -1
000208 4208 CD4E42          17          call    .func_update_cur_pos
00020B 420B C32E42          10          jp      .mainloop_end
       420E                         .chk_cur_down
00020E 420E FE1F             7          cp      KEY_DOWN
000210 4210 2008            12          jr      nz, .chk_cur_right
000212 4212 3E01             7          ld      A, 0x01         ; +1
000214 4214 CD4E42          17          call    .func_update_cur_pos
000217 4217 C32E42          10          jp      .mainloop_end
       421A                         .chk_cur_right
00021A 421A FE1C             7          cp      KEY_RIGHT
00021C 421C 2007            12          jr      nz, .chk_cur_left
00021E 421E 3E12             7          ld      A, 0x12         ; +18
000220 4220 CD4E42          17          call    .func_update_cur_pos
000223 4223 1809            12          jr      .mainloop_end
       4225                         .chk_cur_left
000225 4225 FE1D             7          cp      KEY_LEFT
000227 4227 2005            12          jr      nz, .mainloop_end
000229 4229 3EEE             7          ld      A, 0xee         ; -18
00022B 422B CD4E42          17          call    .func_update_cur_pos
       422E                         .mainloop_end
00022E 422E C3B941          10          jp      .rootmenu_begin
                                
                                    ;----------
       4231                         .refresh_screen_backroll
000231 4231 CD4C51          17          call    UPDATE_SYSTEM_INFO
000234 4234 CD2443          17          call    CTXT_PRINT_TITLE                ;; VERSION + PICO_CLOCK + BOOT_ROM_NAME
000237 4237 CD6651          17          call    CTXT_PRINT_SDCARD_FILES
00023A 423A 3E21             7          ld      A, CURSOR_CHAR                  ;; ファイル選択カーソルを表示しておく
00023C 423C CD6D42          17          call    .func_ctxt_print_sel_cur
00023F 423F CD1C44          17          call    CTXT_PRINT_FILENO               ;; ファイル番号表示
000242 4242 CDDA40          17          call    CTXTF.buff_present_backroll
000245 4245 CD5601          17          call    B_KILBUF                        ;; キーバッファのクリア
000248 4248 C9              10          ret
                                
                                
                                    ;----------
       4249                         .func_initdisp_cur_pos
000249 4249 AF               4          xor     A
00024A 424A CD4E42          17          call    .func_update_cur_pos
00024D 424D C9              10          ret
                                
                                    ;----------
       424E                         .func_update_cur_pos
00024E 424E 5F               4          ld      E, A
00024F 424F D5              11          push    DE
000250 4250 3E20             7          ld      A, BLANK_CHAR   ;; 古い位置のカーソルを消す
000252 4252 CD6D42          17          call    .func_ctxt_print_sel_cur
000255 4255 3A145E          13          ld      A, (WA_FILES.sel_no)
000258 4258 D1              10          pop     DE
000259 4259 83               4          add     A, E
00025A 425A FE37             7          cp      54+1
00025C 425C 2805            12          jr      z, .noupdate    ; A>=55, ではカーソル位置を更新しない
00025E 425E 3003            12          jr      nc, .noupdate
000260 4260 32145E          13          ld      (WA_FILES.sel_no), A
       4263                         .noupdate
000263 4263 CD5E51          17          call    CHECK_EMPTY_FILES
000266 4266 C8              11          ret     z
000267 4267 3E21             7          ld      A, CURSOR_CHAR  ;; 新しい位置にカーソルを表示する
000269 4269 CD6D42          17          call    .func_ctxt_print_sel_cur
00026C 426C C9              10          ret
                                
                                    ;----------
                                    ; カーソルの表示
       426D                         .func_ctxt_print_sel_cur
                                    ;   A=cur-char
00026D 426D 67               4          ld      H, A
00026E 426E 3A145E          13          ld      A, (WA_FILES.sel_no)        ; 1~
000271 4271 B7               4          or      A
000272 4272 C8              11          ret     z
000273 4273 3D               4          dec     A
000274 4274 010012          10          ld      BC, 0x1200          ; A / 18 => { C=result, A=remainder }
000277 4277 CD2553          17          call    DIV8R               ; use ABC
00027A 427A C603             7          add     A, 3                ; locate(x,3)
00027C 427C 5F               4          ld      E, A
00027D 427D 060D             7          ld      B, 13
00027F 427F CD0553          17          call    MULTI8
000282 4282 57               4          ld      D, A
000283 4283 7C               4          ld      A, H
000284 4284 CD5C40          17          call    CTXTF.buff_put_char
000287 4287 C9              10          ret
                                
                                
                                    ;----------------------------------------------------------------------------------
                                    ;----------
                                    ; 選択した起動するROMファイルの番号をPico側に伝える
       4288                         .cmd_set_rom_num
000288 4288 219842          10          ld      HL, .scr_setrom_progress
00028B 428B CD1541          17          call    CTXTF.go_scr
00028E 428E CD1244          17          call    GET_FILENO      ;; file no -> A
000291 4291 47               4          ld      B, A
000292 4292 3E04             7          ld      A, IFCMD.SET_ROM
000294 4294 CD8044          17          call    FUNC_CMD_TO_CTARK
000297 4297 C9              10          ret 
       4298                         .scr_setrom_progress
000298 4298 050B090115                  db  CTXT.box,       11,9, 1,21,
00029D 429D 020C0B5072657061            db  CTXT.prints,    12,11, "Preparing ROM image", 0, CTXT.EOT
            72696E6720524F4D    
            20696D61676500FF    
0002B5 42B5 040E0A2017                  db  CTXT.chars,     14,10, " ", 23
0002BA 42BA 07                          db  CTXT.present
0002BB 42BB 00                          db  CTXT.endc
                                
                                    ;----------
                                    ; 選択した起動するROMファイルと同名のBMPファイルをE-Paperに反映させる
       42BC                         .cmd_print_epaper
0002BC 42BC 21CC42          10          ld      HL, .scr_printing_epaper
0002BF 42BF CD1541          17          call    CTXTF.go_scr
0002C2 42C2 CD1244          17          call    GET_FILENO      ;; file no -> A
0002C5 42C5 47               4          ld      B, A
0002C6 42C6 3E0B             7          ld      A, IFCMD.PRINT_E_PAPER
0002C8 42C8 CD8044          17          call    FUNC_CMD_TO_CTARK
0002CB 42CB C9              10          ret 
       42CC                         .scr_printing_epaper
0002CC 42CC 050B090112                  db  CTXT.box,       11,9, 1,18,
0002D1 42D1 020C0B5072696E74            db  CTXT.prints,    12,11, "Printing E-Paper", 0, CTXT.EOT
            696E6720452D5061    
            70657200FF          
0002E6 42E6 040E0A2014                  db  CTXT.chars,     14,10, " ", 20
0002EB 42EB 07                          db  CTXT.present
0002EC 42EC 00                          db  CTXT.endc
                                
                                    ;----------
                                    ; ユーザーに実行を問い合わせた後、削除対象のROMファイルの番号をCT-ARKに伝え、SDカードから消してもらう
       42ED                         .cmd_del_rom
0002ED 42ED CD1847          17          call    FUNC_DELETE_QUERY
0002F0 42F0 C9              10          ret 
                                    ;----------
                                    ; Slot2の23KB-ROMカートリッジの内容を吸い出して渡しPico側にファイル保存してもらう
       42F1                         .cmd_write_file
0002F1 42F1 CD6049          17          call    FUNC_FWRITE_QUERY
0002F4 42F4 C9              10          ret
                                    ;----------
                                    ; 選択ファイル番号をCT-ARKに伝え、BAS->ROM変換したファイルを作成してもらう
       42F5                         .cmd_bas_to_rom
0002F5 42F5 CDC949          17          call    FUNC_BASROM_QUERY
0002F8 42F8 C9              10          ret 
                                    ;----------
                                    ; SimpleRomカートリッジ（FlushROMカートリッジ）へROMファイルイメージを書き込む
       42F9                         .cmd_storerom
                                        ; Slot2にSimpleRomカートリッジがあるかどうか確認する
0002F9 42F9 CD2C54          17          call    SST39SF010A_CHECK
0002FC 42FC 22215E          16          ld      (WA_STOREROMQRY.device), HL
0002FF 42FF CD8F46          17          call    FUNC_PRT_CHIPMODEL
000302 4302 B7               4          or      A
000303 4303 2007            12          jr      nz, .found
000305 4305 CDC000          17          call    B_BEEP
000308 4308 CDA84B          17          call    FUNC_NOTFOUND_SIMPLEROM
00030B 430B C9              10          ret
       430C                         .found
                                        ; 書き込み先アドレスを問い合わせる -> WA_STOREROMQRY.write_ptr
00030C 430C CD564A          17          call    FUNC_DESTADDR_QUERY
00030F 430F C9              10          ret
       4310                         .cmd_cancel
000310 4310 C9              10          ret
                                
                                
                                ;=========================================
                                ; R800 ROMモードへ切り替える（turboRの場合）
                                ;=========================================
       4311                     CHANGE_CPU:
       4311                         .start
000311 4311 3A2D00          13          ld      A, (MAINROMVER)
000314 4314 FE03             7          cp      3
000316 4316 D8              11          ret     c
       4317                         .change
000317 4317 3E81             7          ld      A, 0x81                 ; R800 ROM Mode
000319 4319 CD8001          17          call    B_CHGCPU
00031C 431C C9              10          ret
                                
                                ;=========================================
                                ; 画面クリア
                                ;=========================================
       431D                     CLEAR_SCREEN:
       431D                         .start
00031D 431D F5              11          push    AF
00031E 431E AF               4          xor     A           ;; zフラグのセット
00031F 431F CDC300          17          call    B_CLS
000322 4322 F1              10          pop     AF
000323 4323 C9              10          ret
                                
                                ;=========================================
                                ; タイトルの表示
                                ;=========================================
       4324                     CTXT_PRINT_TITLE:
       4324                         .start
000324 4324 214643          10          ld      HL, .scr_title
000327 4327 CD1541          17          call    CTXTF.go_scr
00032A 432A 11000E          10          ld      DE, 0x0e00
00032D 432D 210C5F          10          ld      HL, MSXPICO_IF.pico_side_version    ;; Pico program ver.
000330 4330 CD4A40          17          call    CTXTF.buff_print
000333 4333 110012          10          ld      DE, 0x1200
000336 4336 21125F          10          ld      HL, MSXPICO_IF.pico_clock_mhz       ;; Pico MPU Clock.
000339 4339 CD4A40          17          call    CTXTF.buff_print
00033C 433C 11161C          10          ld      DE, 0x1c16
00033F 433F 21185F          10          ld      HL, MSXPICO_IF.boot_rom_name        ;; BOOT ROM NAME
000342 4342 CD4A40          17          call    CTXTF.buff_print
000345 4345 C9              10          ret
       4346                         .scr_title
000346 4346 0120                        db  CTXT.fill, 0x20,                        ;; クリア
000348 4348 02                          db  CTXT.prints,                            ;; 文字列
000349 4349 0000                        dw      0x0000                              ;; (0,0)
00034B 434B 43542D41524B3220            db      "CT-ARK2 MENU vX.XX(XXX)-3.0", 0x00, "2026 Harumakkin.", 0x00, CTXT.EOT ; VERSION
            4D454E552076582E    
            585828585858292D    
            332E300032303236    
            20486172756D616B    
            6B696E2E00FF        
000379 4379 04                          db  CTXT.chars,                             ;; 文字を繰り返す
00037A 437A 0200                        dw      0x0002                              ;; (0,2)
00037C 437C 3D28                        db      '=', 40
00037E 437E 04                          db  CTXT.chars,                             ;; 文字を繰り返す
00037F 437F 1500                        dw      0x0015                              ;; (0,2)
000381 4381 3D28                        db      "=", 40
000383 4383 02                          db  CTXT.prints,                            ;; 文字列
000384 4384 1600                        dw      0x0016                              ;; (0,23)
000386 4386 4E6F2E3030302F30            db      "No.000/000      KB", 0x00, CTXT.EOT
            3030202020202020    
            4B4200FF            
00039A 439A 02                          db  CTXT.prints,                            ;; 文字列
00039B 439B 1617                        dw      0x1716                              ;; (23,23)
00039D 439D 424F4F543A00FF              db      "BOOT:", 0x00, CTXT.EOT
0003A4 43A4 02                          db  CTXT.prints,                            ;; 文字列
0003A5 43A5 1700                        dw      0x0017                              ;; (0,24)
0003A7 43A7 5B4553435D4D454E            db      "[ESC]MENU [CLS]REFRESH", 0x00, CTXT.EOT
            55205B434C535D52    
            45465245534800FF    
0003BF 43BF 00                          db  CTXT.endc                               ;; 終端コマンド
                                
                                ;=========================================
                                ; 準備
                                ;=========================================
       43C0                     SETUP_ENV:
       43C0                         .start
0003C0 43C0 21E743          10          ld      HL, .str_mess
0003C3 43C3 CDEE4F          17          call    PRINT_STR
                                    
                                    ; ページ2は使用しないので、下記のコードはコメント
                                    ; ;------------------------------------
                                    ; ; ページ1のスロットを調べ、ページ2にも同じスロットを呼び出す
                                    ; ld        A, 1
                                    ; call  WHEREPAGE       ; A <= Page1のスロット番号
                                    ; ld        HL,0x8000       ; h bit.8-7 = page No.2
                                    ; call  B_ENASLT
                                
                                    ; 所定のRAM領域にマジックワードを書き込んで、
                                    ; PIco側のROMリスト／吸出しなどの機能を有効化する
       43C6                         .open_the_ark
0003C6 43C6 21DB43          10          ld      HL, .str_magic_word
0003C9 43C9 11005F          10          ld      DE, MSXPICO_IF.magic_word
0003CC 43CC 010C00          10          ld      BC, 12
0003CF 43CF EDB0                        ldir
                                
                                    ; マジックワードが書き込めない場合は、ここで無限ループ
0003D1 43D1 21005F          10          ld      HL, MSXPICO_IF.magic_word
0003D4 43D4 3ADB43          13          ld      A, (.str_magic_word)
       43D7                         .@1
0003D7 43D7 BE               7          cp      (HL)
0003D8 43D8 20FD            12          jr      nz, .@1
0003DA 43DA C9              10          ret
       43DB                         .str_magic_word
0003DB 43DB 4F50454E20544845            db      "OPEN THE ARK"  ; 12 bytes
            2041524B            
       43E7                         .str_mess
0003E7 43E7 57616974696E6720            db      "Waiting for CT-ARK to open.", 0x00
            666F722043542D41    
            524B20746F206F70    
            656E2E00            
                                
                                ;=========================================
                                ; カーソル位置のFILERECORDへのアドレスを得る
                                ;=========================================
       4403                     GET_PTR_FILERECORD:
                                ; @param A カーソル位置
                                ; @reurn HL FILERECORDへのアドレス
                                ; @note use A
       4403                         .start
000403 4403 D5              11          push    DE
000404 4404 C5              11          push    BC
000405 4405 3D               4          dec     A
000406 4406 1E12             7          ld      E, SIZE_FILERECORD
000408 4408 CD1353          17          call    MULTI8X8R16
00040B 440B 112D5F          10          ld      DE, MSXPICO_IF_REQ_FILELIST.files
00040E 440E 19              11          add     HL, DE
00040F 440F C1              10          pop     BC
000410 4410 D1              10          pop     DE
       4411                         .end
000411 4411 C9              10          ret
                                
                                ;=========================================
                                ; カーソル位置のファイル番号を得る
                                ;=========================================
       4412                     GET_FILENO:
                                ; @reurn A ファイル番号
       4412                         .start
000412 4412 E5              11          push    HL
000413 4413 3A145E          13          ld      A, (WA_FILES.sel_no)
000416 4416 CD0344          17          call    GET_PTR_FILERECORD
                                        ; no を得る->A, noは16bitsだけど現状下位8bitしか使用していません
000419 4419 7E               7          ld      A, (HL)
00041A 441A E1              10          pop     HL
       441B                         .end
00041B 441B C9              10          ret
                                
                                ;=========================================
                                ; カーソル位置のファイル番号を表示する
                                ;=========================================
                                ; @note use HL, 
       441C                     CTXT_PRINT_FILENO:
       441C                         .start
00041C 441C CD1244          17          call    GET_FILENO
00041F 441F F5              11          push    AF
000420 4420 B7               4          or      A
000421 4421 200D            12          jr      nz, .@1
                                        ; No = 0 だった場合、--- を表示する
000423 4423 21005E          10          ld      HL, WA_FILES.tmp_str
000426 4426 3E2D             7          ld      A, '-'
000428 4428 77               7          ld      (HL), A
000429 4429 23               6          inc     HL
00042A 442A 77               7          ld      (HL), A
00042B 442B 23               6          inc     HL
00042C 442C 77               7          ld      (HL), A
00042D 442D 23               6          inc     HL          ; `/`分
00042E 442E 1815            12          jr      .@3
       4430                         .@1
000430 4430 3D               4          dec     A
000431 4431 ED5B175E        20          ld      DE, (WA_FILES.disp_top_fno)
                                        ; DE=DE+A
000435 4435 83               4          add     A, E         ; A = E + A
000436 4436 5F               4          ld      E, A
000437 4437 3001            12          jr      nc,.@2      ; no_carry
000439 4439 14               4          inc     D
       443A                         .@2
00043A 443A 21005E          10          ld      HL, WA_FILES.tmp_str
00043D 443D CD6A50          17          call    DEC3TOSTR999            ;; (HL) <- "000"
                                        ;
000440 4440 3E2F             7          ld      A, '/'
000442 4442 32035E          13          ld      (WA_FILES.tmp_str+3), A
       4445                         .@3
000445 4445 23               6          inc     HL
000446 4446 ED5B155E        20          ld      DE, (WA_FILES.total_files)
00044A 444A CD6A50          17          call    DEC3TOSTR999            ;; (HL) <- "000"
                                        ;
00044D 444D 3E20             7          ld      A, ' '
00044F 444F 32075E          13          ld      (WA_FILES.tmp_str+7), A
                                        ;
000452 4452 F1              10          pop     AF
000453 4453 B7               4          or      A
000454 4454 200F            12          jr      nz, .@4
                                        ; No = 0 だった場合、--- を表示する
000456 4456 21085E          10          ld      HL, WA_FILES.tmp_str+8
000459 4459 3E20             7          ld      A, ' '
00045B 445B 0605             7          ld      B, 5
       445D                         .@@
00045D 445D 77               7          ld      (HL), A
00045E 445E 23               6          inc     HL
00045F 445F 10FC            13          djnz    .@@B
000461 4461 AF               4          xor     A
000462 4462 77               7          ld      (HL), A ; \0
000463 4463 1811            12          jr      .@5
       4465                         .@4
000465 4465 CD0344          17          call    GET_PTR_FILERECORD      ;; HL<-pointer
000468 4468 1600             7          ld      D, 0
00046A 446A 1E10             7          ld      E, 2+1+13
00046C 446C 19              11          add     HL, DE
00046D 446D 5E               7          ld      E, (HL)
00046E 446E 23               6          inc     HL
00046F 446F 56               7          ld      D, (HL)
000470 4470 21085E          10          ld      HL, WA_FILES.tmp_str+8
000473 4473 CD9C50          17          call    DEC5TOSTR65535          ;; (HL) <- "00000"
       4476                         .@5
000476 4476 111603          10          ld      DE, 0x0316              ;; locate(3,22)
000479 4479 21005E          10          ld      HL, WA_FILES.tmp_str
00047C 447C CD4A40          17          call    CTXTF.buff_print
       447F                         .end
00047F 447F C9              10          ret
                                
                                
                                ;=========================================
                                ; PICO側へコマンドを送信する
                                ;=========================================
       4480                     FUNC_CMD_TO_CTARK:
                                    ;   A=CMD
                                    ;   B=CMD_VALUE
       4480                         .start
000480 4480 4F               4          ld      C, A
000481 4481 AF               4          xor     A
000482 4482 32255F          13          ld      (MSXPICO_IF.cmd_res), A
000485 4485 78               4          ld      A, B
000486 4486 32275F          13          ld      (MSXPICO_IF_BASE.cmd_value), A
000489 4489 79               4          ld      A, C
00048A 448A 32265F          13          ld      (MSXPICO_IF_BASE.code), A
                                
       448D                         .wait_res
00048D 448D 3A255F          13          ld      A, (MSXPICO_IF.cmd_res)
000490 4490 B9               4          cp      C
000491 4491 20FA            12          jr      nz, .wait_res
                                
000493 4493 C9              10          ret 
                                
                                ;=========================================
                                ; 入力文字のコードを16進数で表示する(動作確認用)
                                ;=========================================
       4494                     FUNC_PRINT_KEYCODE:
       4494                         .start
                                ;
000494 4494 C9              10          ret
                                ;
000495 4495 F5              11          push    AF
000496 4496 47               4          ld      B, A                ;; BC <- input charctor code
000497 4497 21005E          10          ld      HL, WA_FILES.tmp_str
00049A 449A CDF350          17          call    HEX8TOSTR
00049D 449D 110025          10          ld      DE, 0x2500
0004A0 44A0 21005E          10          ld      HL, WA_FILES.tmp_str
0004A3 44A3 CD4A40          17          call    CTXTF.buff_print
0004A6 44A6 CDCD40          17          call    CTXTF.buff_present
0004A9 44A9 F1              10          pop     AF
0004AA 44AA C9              10          ret
                                
                                
                                ;=========================================
                                ; CTXTを描画してメニュー選択とその項目の実行を行う
                                ; @param reg.HL CTXTへのポインタ
       44AB                     CTXT_MENU:
0004AB 44AB CD1541          17          call    CTXTF.go_scr
       44AE                         .select
0004AE 44AE 7E               7          ld      A, (HL)                 ; 項目数
0004AF 44AF B7               4          or      A
0004B0 44B0 C8              11          ret     z
0004B1 44B1 47               4          ld      B, A
0004B2 44B2 23               6          inc     HL
0004B3 44B3 56               7          ld      D, (HL)
0004B4 44B4 23               6          inc     HL
0004B5 44B5 5E               7          ld      E, (HL)                 ; DE=カーソル原点座標
0004B6 44B6 23               6          inc     HL
0004B7 44B7 7E               7          ld      A, (HL)                 ; 初期選択項目番号
0004B8 44B8 23               6          inc     HL
0004B9 44B9 22195E          16          ld      (WA_ACTMENU.func_ptr), HL   ; サブルーチンテーブル
0004BC 44BC CD5452          17          call    VSELECT
       44BF                         .call_subr
0004BF 44BF B7               4          or      A
0004C0 44C0 C8              11          ret     z           ; cancel
0004C1 44C1 47               4          ld      B, A
0004C2 44C2 2A195E          16          ld      HL, (WA_ACTMENU.func_ptr)
0004C5 44C5 3D               4          dec     A
0004C6 44C6 07               4          rlca
0004C7 44C7 5F               4          ld      E, A
0004C8 44C8 1600             7          ld      D, 0
0004CA 44CA 19              11          add     HL, DE
0004CB 44CB 5E               7          ld      E, (HL)
0004CC 44CC 23               6          inc     HL
0004CD 44CD 56               7          ld      D, (HL)
0004CE 44CE EB               4          ex      DE, HL
0004CF 44CF 78               4          ld      A, B        ; A = 選択番号 1～
0004D0 44D0 E9               4          jp      (HL)        ; jp 先でretしている
                                
                                ;=========================================
                                ; 選択ファイルに対するアクションのメニュー
                                ;=========================================
       44D1                     FUNC_ACT_MENU:
       44D1                         .init
0004D1 44D1 21D844          10          ld      HL, .scr_act_menu
0004D4 44D4 CDAB44          17          call    CTXT_MENU
0004D7 44D7 C9              10          ret
                                    ; "+--------------------------------+ "
                                    ; "|  SET TO BOOT ROM FILE          | "
                                    ; "|  PRINT E-PAPER                 | "
                                    ; "|  DELETE FILE                   | "
                                    ; "|  ROM IMAGE(Slot2) > ROM FILE   | "
                                    ; "|  BAS FILE > ROM FILE           | "
                                    ; "|  ROM FILE > Simple ROM(Slot2)  | "
                                    ; "|  CANCEL                        | "
                                    ; "+-------------------[ESC]:CANCEL-+ "
                                    ; "                                   "
       44D8                         .scr_act_menu
0004D8 44D8 050400071F                  db  CTXT.box,       4,0, 7,31
0004DD 44DD 020503                      db  CTXT.prints,    5,3
0004E0 44E0 53455420544F2042            db      "SET TO BOOT ROM FILE", 0x00,
            4F4F5420524F4D20    
            46494C4500          
0004F5 44F5 5052494E5420452D            db      "PRINT E-PAPER", 0x00,
            504150455200        
000503 4503 44454C4554452046            db      "DELETE FILE", 0x00,
            494C4500            
00050F 450F 524F4D2833324B42            db      "ROM(32KB,Slot2) ", ARROW_CHAR, " ROM FILE", 0x00,
            2C536C6F74322920    
            2220524F4D204649    
            4C4500              
00052A 452A 4241532046494C45            db      "BAS FILE ", ARROW_CHAR, " ROM FILE", 0x00
            202220524F4D2046    
            494C4500            
00053E 453E 524F4D2046494C45            db      "ROM FILE ", ARROW_CHAR, " Simple ROM(Slot2)", 0x00
            20222053696D706C    
            6520524F4D28536C    
            6F74322900          
00055B 455B 43414E43454C00FF            db      "CANCEL", 0x00, CTXT.EOT
000563 4563 020C135B4553435D            db  CTXT.prints,    12,19, "[ESC]:CANCEL", 0x00, CTXT.EOT
            3A43414E43454C00    
            FF                  
000574 4574 040D012021                  db  CTXT.chars,     13,1, " ", 0x21
000579 4579 07                          db  CTXT.present
00057A 457A 00                          db  CTXT.endc
00057B 457B 07                          db  7           ; 選択項目数
00057C 457C 0205                        db  2, 5        ; カーソル原点座標 X,Y
00057E 457E 01                          db  1           ; デフォルト選択されている綱目番号
00057F 457F 8D45                        dw  FUNC_SELECT_BOOTROMTYPE
000581 4581 BC42                        dw  START_CT_ARK.cmd_print_epaper
000583 4583 ED42                        dw  START_CT_ARK.cmd_del_rom
000585 4585 F142                        dw  START_CT_ARK.cmd_write_file
000587 4587 F542                        dw  START_CT_ARK.cmd_bas_to_rom
000589 4589 F942                        dw  START_CT_ARK.cmd_storerom
00058B 458B 1043                        dw  START_CT_ARK.cmd_cancel
                                
                                ;=========================================
       458D                     FUNC_SELECT_BOOTROMTYPE:
       458D                         .start
00058D 458D 219445          10          ld      HL, .scr_select_bootromtype
000590 4590 CDAB44          17          call    CTXT_MENU
000593 4593 C9              10          ret
       4594                         .scr_select_bootromtype
000594 4594 050602091F                  db  CTXT.box,       6,2, 9,31
000599 4599 020604                      db  CTXT.prints,    6,4
00059C 459C 53454C4543542052            db      "SELECT ROM TYPE", 0,
            4F4D205459504500    
0005AC 45AC 20506C61696E524F            db      " PlainROM 0000H", 0
            4D20303030304800    
0005BC 45BC 20506C61696E524F            db      " PlainROM 4000H", 0
            4D20343030304800    
0005CC 45CC 20506C61696E524F            db      " PlainROM 8000H", 0
            4D20383030304800    
0005DC 45DC 20506C61696E524F            db      " PlainROM C000H", 0
            4D20433030304800    
0005EC 45EC 204153434949384B            db      " ASCII8K", 0,
            00                  
0005F5 45F5 2041534349493136            db      " ASCII16K", 0,
            4B00                
0005FF 45FF 2041534349493136            db      " ASCII16K(R-TYPE)", 0,
            4B28522D54595045    
            2900                
000611 4611 204E4558544F5228            db      " NEXTOR(128KB) with 256KB-RAM", 0
            3132384B42292077    
            697468203235364B    
            422D52414D00        
00062F 462F 204D5358444F5332            db      " MSXDOS2 with 320KB-RAM", 0,
            2077697468203332    
            304B422D52414D00    
000647 4647 FF                          db      CTXT.EOT
000648 4648 0210155B4553435D            db  CTXT.prints,    16,21, "[ESC]:CANCEL", 0, CTXT.EOT
            3A43414E43454C00    
            FF                  
000659 4659 0411202021                  db  CTXT.chars,     17,32, " ", 0x21
00065E 465E 07                          db  CTXT.present
00065F 465F 00                          db  CTXT.endc
000660 4660 09                          db  9           ; 選択項目数
000661 4661 0407                        db  4, 7        ; カーソル原点座標 X,Y
000663 4663 02                          db  2           ; デフォルト選択されている綱目番号
000664 4664 7646                        dw  .item_page0
000666 4666 7646                        dw  .item_page1
000668 4668 7646                        dw  .item_page2
00066A 466A 7646                        dw  .item_page3
00066C 466C 7646                        dw  .item_ascii8k
00066E 466E 7646                        dw  .item_ascii16k
000670 4670 7646                        dw  .item_ascii16k_rtype
000672 4672 7646                        dw  .item_nextor128_with256k
000674 4674 7646                        dw  .item_msxdos2with320k
       4676                         .item_page0
       4676                         .item_page1
       4676                         .item_page2
       4676                         .item_page3
       4676                         .item_ascii8k
       4676                         .item_ascii16k
       4676                         .item_ascii16k_rtype
       4676                         .item_nextor128_with256k
       4676                         .item_msxdos2with320k
000676 4676 3D               4          dec     A
000677 4677 4F               4          ld      C, A
000678 4678 0600             7          ld      B, 0
00067A 467A 218646          10          ld      HL, .romtypetable
00067D 467D 09              11          add     HL, BC
00067E 467E 7E               7          ld      A, (HL)
00067F 467F 32285F          13          ld  (MSXPICO_IF_STR_SET_ROM.boot_rom_type), A   ; ROM TYPE
000682 4682 CD8842          17          call    START_CT_ARK.cmd_set_rom_num
000685 4685 C9              10          ret
       4686                         .romtypetable
000686 4686 61                          db  SETROMTYPE.ROM_PAGE_0
000687 4687 62                          db  SETROMTYPE.ROM_PAGE_1
000688 4688 63                          db  SETROMTYPE.ROM_PAGE_2
000689 4689 64                          db  SETROMTYPE.ROM_PAGE_3
00068A 468A 68                          db  SETROMTYPE.ASC8K_FLASHROM
00068B 468B 69                          db  SETROMTYPE.ASC16K_FLASHROM
00068C 468C 6B                          db  SETROMTYPE.RTYPE
00068D 468D 6A                          db  SETROMTYPE.NEXTOR128KB_256KB
00068E 468E 65                          db  SETROMTYPE.MSXDOS2_320KB
                                
                                ;=========================================
                                ; SimpleROM(FlashROM)名を表示する
                                ;=========================================
       468F                     FUNC_PRT_CHIPMODEL:
                                    ; @param H=MakerID L=DevideID
                                    ; @return A: 0=not fond.
       468F                         .start
00068F 468F E5              11          push    HL
000690 4690 21CB46          10          ld      HL, .scr_chipmodel
000693 4693 CD1541          17          call    CTXTF.go_scr
000696 4696 E1              10          pop     HL
                                    ; Check MakerID
000697 4697 3EBF             7          ld      A, 0xbf
000699 4699 BC               4          cp      H
00069A 469A 202D            12          jr      nz, .notfound
                                    ; Check DeviceID
00069C 469C 110B0E          10          ld      DE, 0x0E0B          ;; 表示座標(14,11)
       469F                         .@1
00069F 469F 3EB5             7          ld      A, 0xb5
0006A1 46A1 BD               4          cp      L
0006A2 46A2 2008            12          jr      nz, .@2
0006A4 46A4 21F146          10          ld      HL, .rom_name1
0006A7 46A7 CD4A40          17          call    CTXTF.buff_print
0006AA 46AA 181A            12          jr      .found
       46AC                         .@2
0006AC 46AC 3EB6             7          ld      A, 0xb6
0006AE 46AE BD               4          cp      L
0006AF 46AF 2008            12          jr      nz, .@3
0006B1 46B1 21FE46          10          ld      HL, .rom_name2
0006B4 46B4 CD4A40          17          call    CTXTF.buff_print
0006B7 46B7 180D            12          jr      .found
       46B9                         .@3
0006B9 46B9 3EB7             7          ld      A, 0xb7
0006BB 46BB BD               4          cp      L
0006BC 46BC 200B            12          jr      nz, .notfound
0006BE 46BE 210B47          10          ld      HL, .rom_name3
0006C1 46C1 CD4A40          17          call    CTXTF.buff_print
0006C4 46C4 1800            12          jr      .found
       46C6                         .found
0006C6 46C6 3E01             7          ld      A, 1
0006C8 46C8 C9              10          ret
       46C9                         .notfound
0006C9 46C9 AF               4          xor     A
0006CA 46CA C9              10          ret
                                
                                    ;"+-------------------------+ "
                                    ;"| FlashROM: Not found...  | "
                                    ;"+-------------------------+ "
       46CB                         .scr_chipmodel
0006CB 46CB 050A02011A                  db  CTXT.box,       10,2, 1,26
0006D0 46D0 020B04466C617368            db  CTXT.prints,    11,4, "FlashROM: Not found...", 0, CTXT.EOT
            524F4D3A204E6F74    
            20666F756E642E2E    
            2E00FF              
0006EB 46EB 040D03201C                  db  CTXT.chars,     13,3, ' ', 28
0006F0 46F0 00                          db  CTXT.endc
0006F1 46F1 5353543339534630        .rom_name1      db  "SST39SF010A ", 0x00
            3130412000          
0006FE 46FE 5353543339534630        .rom_name2      db  "SST39SF020A ", 0x00
            3230412000          
00070B 470B 5353543339534630        .rom_name3      db  "SST39SF040  ", 0x00
            3430202000          
                                
                                ;=========================================
                                ; 削除実行を問い合わせ
                                ;=========================================
       4718                     FUNC_DELETE_QUERY:
       4718                         .init
000718 4718 212D47          10          ld      HL, .scr_delete_query
00071B 471B CDAB44          17          call    CTXT_MENU
00071E 471E C9              10          ret
       471F                         .item_cancel
00071F 471F C9              10          ret
       4720                         .item_ok
000720 4720 CD1244          17          call    GET_FILENO              ;; file no -> A
000723 4723 47               4          ld      B, A
000724 4724 3E05             7          ld      A, IFCMD.DEL_ROMFILE
000726 4726 CD8044          17          call    FUNC_CMD_TO_CTARK
000729 4729 CD5251          17          call    UPDATE_SDCARD_FILES     ; 更新を要求
00072C 472C C9              10          ret
       472D                         .scr_delete_query
                                        ; "+--------------------------------+ "
                                        ; "|  Delete the selected file. OK? | "
                                        ; "+--------------------------------+ "
                                        ; "|          > CANCEL              | "
                                        ; "|            OK                  | "
                                        ; "+-------------------[ESC]:CANCEL-+ "
                                        ; "                                   "
00072D 472D 050803041F                  db  CTXT.box,       8,3, 4, 31
000732 4732 060A031F                    db  CTXT.boxseph,   10,3, 31
000736 4736 02090544656C6574            db  CTXT.prints,    9,5, "Delete the selected file. OK?", 0, CTXT.EOT
            6520746865207365    
            6C65637465642066    
            696C652E204F4B3F    
            00FF                
000758 4758 020B0F43414E4345            db  CTXT.prints,    11,15, "CANCEL", 0, "OK", 0, CTXT.EOT
            4C004F4B00FF        
000766 4766 020D165B4553435D            db  CTXT.prints,    13,22, "[ESC]:CANCEL", 0, CTXT.EOT
            3A43414E43454C00    
            FF                  
000777 4777 040E042021                  db  CTXT.chars,     14,4, ' ', 33
00077C 477C 07                          db  CTXT.present
00077D 477D 00                          db  CTXT.endc
00077E 477E 02                          db  2           ; 選択項目数
00077F 477F 0E0B                        db  14, 11      ; カーソル原点座標 X,Y
000781 4781 01                          db  1           ; デフォルト選択されている綱目番号
000782 4782 1F47                        dw  .item_cancel
000784 4784 2047                        dw  .item_ok
                                        
                                ;=========================================
                                ; ALL ERASE(CHIP ERASE)実行を問い合わせ
                                ;=========================================
       4786                     FUNC_CHIPERASE_QUERY:
       4786                         .init
000786 4786 219547          10          ld      HL, .scr_chiperase_query
000789 4789 CDAB44          17          call    CTXT_MENU
00078C 478C C9              10          ret
       478D                         .item_cancel
00078D 478D C9              10          ret
       478E                         .item_ok
00078E 478E CD5F54          17          call    SST39SF010A_CHIPERASE       ; FlashROMの内容を消去する
000791 4791 CD134C          17          call    FUNC_DONE_MESSAGE
000794 4794 C9              10          ret
       4795                         .scr_chiperase_query
                                        ; "+-----------------+ "
                                        ; "| CHIP ERASE. OK? | "
                                        ; "+-----------------+ "
                                        ; "|    > CANCEL     | "
                                        ; "|      OK         | "
                                        ; "+----[ESC]:CANCEL-+ "
                                        ; "                    "
000795 4795 050C030411                  db  CTXT.box,       12,3, 4,17
00079A 479A 060E0311                    db  CTXT.boxseph,   14,3, 17
00079E 479E 020D054348495020            db  CTXT.prints,    13,5, "CHIP ERASE. OK?", 0, CTXT.EOT
            45524153452E204F    
            4B3F00FF            
0007B2 47B2 020F0943414E4345            db  CTXT.prints,    15,9, "CANCEL", 0, "OK", 0, CTXT.EOT
            4C004F4B00FF        
0007C0 47C0 0211085B4553435D            db  CTXT.prints,    17,8, "[ESC]:CANCEL", 0, CTXT.EOT
            3A43414E43454C00    
            FF                  
0007D1 47D1 0412052013                  db  CTXT.chars,     18,5, ' ', 19
0007D6 47D6 07                          db  CTXT.present
0007D7 47D7 00                          db  CTXT.endc
0007D8 47D8 02                          db  2           ; 選択項目数
0007D9 47D9 070F                        db  7,15        ; カーソル原点座標 X,Y
0007DB 47DB 01                          db  1           ; デフォルト選択されている綱目番号
0007DC 47DC 8D47                        dw  .item_cancel
0007DE 47DE 8E47                        dw  .item_ok
                                
                                ;=========================================
                                ; 64K ERASE実行を問い合わせ
                                ;=========================================
       47E0                     FUNC_64KERASE_QUERY:
       47E0                         .init
0007E0 47E0 210348          10          ld      HL, .scr_64kerase_query
0007E3 47E3 CDAB44          17          call    CTXT_MENU
0007E6 47E6 C9              10          ret
       47E7                         .item_cancel
0007E7 47E7 C9              10          ret
       47E8                         .item_ok
0007E8 47E8 214D48          10          ld      HL, .scr_64kerasing_mess
0007EB 47EB CD1541          17          call    CTXTF.go_scr
                                        ; 4ページの消去
0007EE 47EE AF               4          xor     A
0007EF 47EF CDDC52          17          call    ROMERASEPAGE
0007F2 47F2 3E01             7          ld      A, 1
0007F4 47F4 CDDC52          17          call    ROMERASEPAGE
0007F7 47F7 3E02             7          ld      A, 2
0007F9 47F9 CDDC52          17          call    ROMERASEPAGE
0007FC 47FC CDF152          17          call    ROMERASEPAGE_P3
                                        ; 終了メッセージ
0007FF 47FF CD134C          17          call    FUNC_DONE_MESSAGE
000802 4802 C9              10          ret
       4803                         .scr_64kerase_query
                                        ; "+-----------------+ "
                                        ; "| 64K ERASE. OK?  | "
                                        ; "+-----------------+ "
                                        ; "|    > CANCEL     | "
                                        ; "|      OK         | "
                                        ; "+----[ESC]:CANCEL-+ "
                                        ; "                    "
000803 4803 050C030411                  db  CTXT.box,       12,3, 4,17
000808 4808 020D0536344B2045            db  CTXT.prints,    13,5,"64K ERASE. OK?", 0, CTXT.EOT
            524153452E204F4B    
            3F00FF              
00081B 481B 060E0311                    db  CTXT.boxseph,   14,3, 17
00081F 481F 020F09                      db  CTXT.prints,    15,9,
000822 4822 43414E43454C00              db      "CANCEL",0,
000829 4829 4F4B00FF                    db      "OK",0, CTXT.EOT
00082D 482D 0211085B4553435D            db  CTXT.prints,    17,8, "[ESC]:CANCEL", 0, CTXT.EOT
            3A43414E43454C00    
            FF                  
00083E 483E 0412052013                  db  CTXT.chars,     18,5, ' ', 19
000843 4843 07                          db  CTXT.present
000844 4844 00                          db  CTXT.endc
000845 4845 02                          db  2           ; 選択項目数
000846 4846 070F                        db  7,15        ; カーソル原点座標 X,Y
000848 4848 01                          db  1           ; デフォルト選択されている綱目番号
000849 4849 E747                        dw  .item_cancel
00084B 484B E847                        dw  .item_ok
       484D                         .scr_64kerasing_mess
                                        ; "+-----------------+ "
                                        ; "| 64K Erasing...  | "
                                        ; "+-----------------+ "
00084D 484D 0511040111                  db  CTXT.box,       17,4, 1,17
000852 4852 02120636344B2045            db  CTXT.prints,    18,6, "64K Erasing...", 0, CTXT.EOT
            726173696E672E2E    
            2E00FF              
000865 4865 0414052013                  db  CTXT.chars,     20,5, ' ', 19
00086A 486A 07                          db  CTXT.present
00086B 486B 00                          db  CTXT.endc
                                
                                
                                ;=========================================
                                ; ファイル名の入力
                                ;=========================================
       486C                     FUNC_INPUT_FILE_NAME:
00086C 486C 21FA48          10          ld      HL, .scr_input_filename
00086F 486F CD1541          17          call    CTXTF.go_scr
000872 4872 CD5601          17          call    B_KILBUF
                                
                                        ; 入力文字空欄をいったん空白文字で埋める
000875 4875 21235E          10          ld      HL, WA_FNAME.name
000878 4878 3E20             7          ld      A, ' '
00087A 487A 0608             7          ld      B, 8
       487C                         .fill_loop
00087C 487C 77               7          ld      (HL), A
00087D 487D 23               6          inc     HL
00087E 487E 10FC            13          djnz    .fill_loop
000880 4880 AF               4          xor     A ;\0
000881 4881 77               7          ld      (HL), A
                                
                                        ; 入力文字欄に選択ファイルの名称をコピーする
000882 4882 3A145E          13          ld      A, (WA_FILES.sel_no)
000885 4885 21235E          10          ld      HL, WA_FNAME.name       ; HL=格納先
000888 4888 CD924F          17          call    COPY_FILESPEC
00088B 488B 79               4          ld      A, C
00088C 488C 322C5E          13          ld      (WA_FNAME.len), A       ; 入力文字数
                                
       488F                         .inputloop_begin
                                        ; 入力文字の表示
00088F 488F 110C06          10          ld      DE, 0x060c
000892 4892 21235E          10          ld      HL, WA_FNAME.name
000895 4895 CD4A40          17          call    CTXTF.buff_print
000898 4898 CDCD40          17          call    CTXTF.buff_present
                                        ; テキストカーソル位置
00089B 489B 210D07          10          ld      HL, 0x070d
00089E 489E 3A2C5E          13          ld      A, (WA_FNAME.len)
0008A1 48A1 84               4          add     A, H
0008A2 48A2 67               4          ld      H, A
0008A3 48A3 CDC600          17          call    B_POSIT
                                
                                        ; 入力待ち
0008A6 48A6 CD9F00          17          call    B_CHGET
0008A9 48A9 CD9444          17          call    FUNC_PRINT_KEYCODE      ;; デバッグ用にキーコードを画面右上に表示する
       48AC                         .chk_esc
0008AC 48AC FE1B             7          cp      KEY_ESC
0008AE 48AE 2006            12          jr      nz, .chk_ret
0008B0 48B0 AF               4          xor     A
0008B1 48B1 322C5E          13          ld      (WA_FNAME.len), A
0008B4 48B4 1843            12          jr      .input_end
       48B6                         .chk_ret
0008B6 48B6 FE0D             7          cp      KEY_RETURN
0008B8 48B8 2008            12          jr      nz, .chk_bs
0008BA 48BA 3A2C5E          13          ld      A, (WA_FNAME.len)
0008BD 48BD B7               4          or      A
0008BE 48BE 28CF            12          jr      z, .inputloop_begin
0008C0 48C0 1837            12          jr      .input_end
       48C2                         .chk_bs
0008C2 48C2 FE08             7          cp      KEY_BS
0008C4 48C4 2016            12          jr      nz, .chk_chars
0008C6 48C6 3A2C5E          13          ld      A, (WA_FNAME.len)
0008C9 48C9 B7               4          or      A
0008CA 48CA 28C3            12          jr      z, .inputloop_begin
0008CC 48CC 3D               4          dec     A
0008CD 48CD 322C5E          13          ld      (WA_FNAME.len), A
0008D0 48D0 1600             7          ld      D, 0
0008D2 48D2 5F               4          ld      E, A
0008D3 48D3 21235E          10          ld      HL, WA_FNAME.name
0008D6 48D6 19              11          add     HL, DE
0008D7 48D7 3E20             7          ld      A, ' '
0008D9 48D9 77               7          ld      (HL), A
0008DA 48DA 18B3            12          jr      .inputloop_begin
       48DC                         .chk_chars
0008DC 48DC CDFF51          17          call    CHK_FILESPEC_CHAR
0008DF 48DF 2015            12          jr      nz, .inputloop_end
       48E1                         .addchar
0008E1 48E1 47               4          ld      B, A
0008E2 48E2 3A2C5E          13          ld      A, (WA_FNAME.len)
0008E5 48E5 FE08             7          cp      8
0008E7 48E7 280D            12          jr      z, .inputloop_end
0008E9 48E9 1600             7          ld      D, 0
0008EB 48EB 5F               4          ld      E, A
0008EC 48EC 21235E          10          ld      HL, WA_FNAME.name
0008EF 48EF 19              11          add     HL, DE
0008F0 48F0 3C               4          inc     A
0008F1 48F1 322C5E          13          ld      (WA_FNAME.len), A
0008F4 48F4 78               4          ld      A, B
0008F5 48F5 77               7          ld      (HL), A
       48F6                         .inputloop_end
0008F6 48F6 C38F48          10          jp      .inputloop_begin
       48F9                         .input_end
0008F9 48F9 C9              10          ret
                                
       48FA                         .scr_input_filename
                                        ; "+-----------------------------+ "
                                        ; "| Input filename              | "
                                        ; "+-----------------------------+ "
                                        ; "| >                           | "
                                        ; "+-----------------------------+ "
                                        ; "| Max 8 length.               | "
                                        ; "| Ignore file extension(.xxx) | "
                                        ; "+----------------[ESC]:CANCEL-+ "
                                        ; "                                "
0008FA 48FA 050903061D                  db  CTXT.box,       9,3, 6,29,
0008FF 48FF 060B031D                    db  CTXT.boxseph,   11,3, 29
000903 4903 060D031D                    db  CTXT.boxseph,   13,3, 29
000907 4907 020A05                      db  CTXT.prints,    10,5,
00090A 490A 496E707574206669            db                  "Input filename", 0
            6C656E616D6500      
000919 4919 00                          db                  0,
00091A 491A 3E00                        db                  ">", 0,
00091C 491C 00                          db                  0,
00091D 491D 4D61782038206C65            db                  "Max 8 length.", 0
            6E6774682E00        
00092B 492B 49676E6F72652066            db                  "Ignore file extension(.xxx)", 0, CTXT.EOT
            696C652065787465    
            6E73696F6E282E78    
            78782900FF          
000948 4948 0210145B4553435D            db  CTXT.prints,    16,20, "[ESC]:CANCEL", 0, CTXT.EOT
            3A43414E43454C00    
            FF                  
000959 4959 041104201F                  db  CTXT.chars,     17,4, ' ', 31
00095E 495E 07                          db  CTXT.present,
00095F 495F 00                          db  CTXT.endc,
                                
                                ;=========================================
                                ; ファイル書き込み実行の問い合わせ
                                ;=========================================
       4960                     FUNC_FWRITE_QUERY:
       4960                         .init
000960 4960 CD6C48          17          call    FUNC_INPUT_FILE_NAME        ; -> WA_FNAME.len, name[8+1]
000963 4963 3A2C5E          13          ld      A, (WA_FNAME.len)
000966 4966 B7               4          or      A
000967 4967 C8              11          ret     z
000968 4968 217749          10          ld      HL, .scr_fwrite_query
00096B 496B CDAB44          17          call    CTXT_MENU
00096E 496E C9              10          ret
       496F                         .item_cancel
00096F 496F C9              10          ret
       4970                         .item_ok
000970 4970 CD6B4D          17          call    FUNC_FWRITE_PROGRESS        ; 32KROM(slot.2) -> ファイル エクスポートを実行する
000973 4973 CD5251          17          call    UPDATE_SDCARD_FILES         ; 更新を要求
000976 4976 C9              10          ret
       4977                         .scr_fwrite_query
                                        ; "+---------------------------+ "
                                        ; "| Slot.2 > ROM FILE, OK?    | "
                                        ; "+---------------------------+ "
                                        ; "|       > CANCEL            | "
                                        ; "|         OK                | "
                                        ; "+--------------[ESC]:CANCEL-+ "
                                        ; "                              "
000977 4977 050D06041B                  db  CTXT.box,       13,6, 4,27,
00097C 497C 060F061B                    db  CTXT.boxseph,   15,6, 27
000980 4980 020E08                      db  CTXT.prints,    14,8,
000983 4983 536C6F742E322022            db                  "Slot.2 ", ARROW_CHAR, " ROM FILE, OK?", 0, CTXT.EOT
            20524F4D2046494C    
            452C204F4B3F00FF    
00099B 499B 02101043414E4345            db  CTXT.prints,    16,16, "CANCEL", 0, "OK", 0, CTXT.EOT
            4C004F4B00FF        
0009A9 49A9 0212155B4553435D            db  CTXT.prints,    18,21, "[ESC]:CANCEL", 0, CTXT.EOT
            3A43414E43454C00    
            FF                  
0009BA 49BA 041307201D                  db  CTXT.chars,     19,7, ' ', 29
0009BF 49BF 07                          db  CTXT.present,
0009C0 49C0 00                          db  CTXT.endc,
0009C1 49C1 02                          db  2           ; 選択項目数
0009C2 49C2 0F10                        db  15, 16      ; カーソル原点座標 X,Y
0009C4 49C4 01                          db  1           ; デフォルト選択されている綱目番号
0009C5 49C5 6F49                        dw  .item_cancel
0009C7 49C7 7049                        dw  .item_ok
                                
                                
                                ;=========================================
                                ; BASIC -> ROM 変換実行の問い合わせ
                                ;=========================================
       49C9                     FUNC_BASROM_QUERY:
       49C9                         .init
0009C9 49C9 CD6C48          17          call    FUNC_INPUT_FILE_NAME        ; -> WA_FNAME.len, name[8+1]
0009CC 49CC 3A2C5E          13          ld      A, (WA_FNAME.len)
0009CF 49CF B7               4          or      A
0009D0 49D0 C8              11          ret     z
                                        ;
0009D1 49D1 47               4          ld      B, A
0009D2 49D2 21235E          10          ld      HL, WA_FNAME.name
0009D5 49D5 DD21285F        14          ld      IX, MSXPICO_IF_STR_BAS2ROM.cmd_fwr_fspec
       49D9                         .@1
0009D9 49D9 7E               7          ld      A, (HL)
0009DA 49DA FE20             7          cp      ' '
0009DC 49DC 280C            12          jr      z, .@2
0009DE 49DE FE00             7          cp      0x00
0009E0 49E0 2808            12          jr      z, .@2
0009E2 49E2 DD7700          19          ld      (IX+0), A
0009E5 49E5 23               6          inc     HL
0009E6 49E6 DD23            10          inc     IX
0009E8 49E8 10EF            13          djnz    .@1
       49EA                         .@2
0009EA 49EA AF               4          xor     A
0009EB 49EB DD7700          19          ld      (IX+0), A   ; "\0"
                                        ;
0009EE 49EE 21034A          10          ld      HL, .scr_basrom_query
0009F1 49F1 CDAB44          17          call    CTXT_MENU
0009F4 49F4 C9              10          ret
       49F5                         .item_cancel
0009F5 49F5 C9              10          ret
       49F6                         .item_ok
0009F6 49F6 CD1244          17          call    GET_FILENO      ;; file no -> A
0009F9 49F9 47               4          ld      B, A
0009FA 49FA 3E07             7          ld      A, IFCMD.BAS2ROM
0009FC 49FC CD8044          17          call    FUNC_CMD_TO_CTARK
0009FF 49FF CD5251          17          call    UPDATE_SDCARD_FILES         ; 更新を要求
000A02 4A02 C9              10          ret
       4A03                         .scr_basrom_query
                                        ; "+---------------------------+ ",
                                        ; "| BAS FILE > ROM FILE OK?   | ",
                                        ; "+---------------------------+ ",
                                        ; "|       > CANCEL            | ",
                                        ; "|         OK                | ",
                                        ; "+--------------[ESC]:CANCEL-+ ",
                                        ; "                              ",
000A03 4A03 050D06041B                  db  CTXT.box,       13,6, 4,27,
000A08 4A08 060F061B                    db  CTXT.boxseph,   15,6, 27
000A0C 4A0C 020E08                      db  CTXT.prints,    14,8,
000A0F 4A0F 4241532046494C45            db                  "BAS FILE ", ARROW_CHAR, " ROM FILE OK?", 0, CTXT.EOT
            202220524F4D2046    
            494C45204F4B3F00    
            FF                  
000A28 4A28 02101043414E4345            db  CTXT.prints,    16,16, "CANCEL", 0, "OK", 0, CTXT.EOT
            4C004F4B00FF        
000A36 4A36 0212155B4553435D            db  CTXT.prints,    18,21, "[ESC]:CANCEL", 0, CTXT.EOT
            3A43414E43454C00    
            FF                  
000A47 4A47 041307201D                  db  CTXT.chars,     19,7, ' ', 29
000A4C 4A4C 07                          db  CTXT.present,
000A4D 4A4D 00                          db  CTXT.endc,
000A4E 4A4E 02                          db  2           ; 選択項目数
000A4F 4A4F 0F10                        db  15, 16      ; カーソル原点座標 X,Y
000A51 4A51 01                          db  1           ; デフォルト選択されている綱目番号
000A52 4A52 F549                        dw  .item_cancel
000A54 4A54 F649                        dw  .item_ok
                                
                                ;=========================================
                                ; ROMファイル→SimpleRomの書き込み先アドレスの問い合わせ
                                ;=========================================
       4A56                     FUNC_DESTADDR_QUERY:
       4A56                         .init
000A56 4A56 215D4A          10          ld      HL, .scr_destaddr_menu
000A59 4A59 CDAB44          17          call    CTXT_MENU
000A5C 4A5C C9              10          ret
       4A5D                         .scr_destaddr_menu
000A5D 4A5D 050C030818                  db  CTXT.box,       12,3, 8,24
000A62 4A62 060F0318                    db  CTXT.boxseph,   15,3, 24
000A66 4A66 020D05                      db  CTXT.prints,    13,5,
000A69 4A69 53656C6563742074            db                  "Select the top address", 0
            686520746F702061    
            64647265737300      
000A80 4A80 746F207772697465            db                  "to write.", 0, CTXT.EOT
            2E00FF              
000A8B 4A8B 021006                      db  CTXT.prints,    16,6,
000A8E 4A8E 303030304800                db                  "0000H", 0
000A94 4A94 343030304800                db                  "4000H", 0
000A9A 4A9A 383030304800                db                  "8000H", 0
000AA0 4AA0 433030304800                db                  "C000H", 0
000AA6 4AA6 43414E43454C00FF            db                  "CANCEL", 0, CTXT.EOT
000AAE 4AAE 0215115B4553435D            db  CTXT.prints,    21,17, "[ESC]:CANCEL", 0, CTXT.EOT
            3A43414E43454C00    
            FF                  
000ABF 4ABF 041604201A                  db  CTXT.chars,     22,4, ' ', 26
000AC4 4AC4 07                          db  CTXT.present
000AC5 4AC5 00                          db  CTXT.endc
000AC6 4AC6 05                          db  5           ; 選択項目数
000AC7 4AC7 0510                        db  5, 16       ; カーソル原点座標 X,Y
000AC9 4AC9 02                          db  2           ; デフォルト選択されている綱目番号
000ACA 4ACA D54A                        dw  .item_writer
000ACC 4ACC D54A                        dw  .item_writer
000ACE 4ACE D54A                        dw  .item_writer
000AD0 4AD0 D54A                        dw  .item_writer
000AD2 4AD2 D44A                        dw  .item_cancel
       4AD4                         .item_cancel
000AD4 4AD4 C9              10          ret
       4AD5                         .item_writer
000AD5 4AD5 3D               4          dec     A
000AD6 4AD6 321B5E          13          ld      (WA_STOREROMQRY.sel_no), A
000AD9 4AD9 CB27             8          sla     A               ; A *= 2
000ADB 4ADB 4F               4          ld      C, A
000ADC 4ADC 0600             7          ld      B, 0
000ADE 4ADE 216A4B          10          ld      HL, .addr_table
000AE1 4AE1 09              11          add     HL, BC
000AE2 4AE2 4E               7          ld      C, (HL)
000AE3 4AE3 23               6          inc     HL
000AE4 4AE4 46               7          ld      B, (HL)
000AE5 4AE5 ED431F5E        20          ld      (WA_STOREROMQRY.write_ptr), BC
                                        ; 
000AE9 4AE9 AF               4          xor     A
000AEA 4AEA 321C5E          13          ld      (WA_STOREROMQRY.block_no), A
       4AED                         .print_progress_win
000AED 4AED 21724B          10          ld      HL, .scr_writeflashrom_progress
000AF0 4AF0 CD1541          17          call    CTXTF.go_scr
       4AF3                         .write_flash_rom
                                        ; Picoにデータを要求
000AF3 4AF3 3A1C5E          13          ld      A, (WA_STOREROMQRY.block_no)
000AF6 4AF6 32285F          13          ld      (MSXPICO_IF_STR_STORE_ROM.block_no), A
000AF9 4AF9 3A145E          13          ld      A, (WA_FILES.sel_no)
000AFC 4AFC 47               4          ld      B, A
000AFD 4AFD 3E08             7          ld      A, IFCMD.STORE_ROM
000AFF 4AFF CD8044          17          call    FUNC_CMD_TO_CTARK
                                        ;
000B02 4B02 3A2B5F          13          ld      A, (MSXPICO_IF_STR_STORE_ROM.str_block)
000B05 4B05 B7               4          or      A
000B06 4B06 285C            12          jr      z, .end_write
                                        ;
000B08 4B08 212C5F          10          ld      HL, MSXPICO_IF_STR_STORE_ROM.str_block_data
000B0B 4B0B 221D5E          16          ld      (WA_STOREROMQRY.read_ptr), HL
                                        ;
000B0E 4B0E 010020          10          ld      BC, MSXPICO_IF_STR_STORE_ROM.BLOCK_SIZE
       4B11                         .loop1write
000B11 4B11 C5              11          push    BC
000B12 4B12 CD2E51          17          call    GET_CHAR
000B15 4B15 FE1B             7          cp      KEY_ESC         ; ESCキーで中断する
000B17 4B17 284F            12          jr      z, .force_end_write
                                        ;
000B19 4B19 2A1F5E          16          ld      HL, (WA_STOREROMQRY.write_ptr)
000B1C 4B1C AF               4          xor     A
000B1D 4B1D BD               4          cp      L
000B1E 4B1E 200D            12          jr      nz, .@1
                                        ; 書き込みアドレスを表示
000B20 4B20 ED4B1F5E        20          ld      BC, (WA_STOREROMQRY.write_ptr)
000B24 4B24 11131B          10          ld      DE, 0x1b13          ; locate(27,19)
000B27 4B27 CDC440          17          call    CTXTF.buff_print4hex
000B2A 4B2A CDCD40          17          call    CTXTF.buff_present
       4B2D                         .@1
000B2D 4B2D 2A1D5E          16          ld      HL, (WA_STOREROMQRY.read_ptr)
000B30 4B30 5E               7          ld      E, (HL)
000B31 4B31 23               6          inc     HL
000B32 4B32 221D5E          16          ld      (WA_STOREROMQRY.read_ptr), HL
                                        ;
000B35 4B35 2A1F5E          16          ld      HL, (WA_STOREROMQRY.write_ptr)
000B38 4B38 7C               4          ld      A, H
000B39 4B39 A5               4          and     L
000B3A 4B3A FEFF             7          cp      0xff
000B3C 4B3C 282A            12          jr      z, .force_end_write     ; 書込先が0xffffなら終了（0xffffへは書き身を行わない）
                                        ;
000B3E 4B3E 7C               4          ld      A, H
000B3F 4B3F FEC0             7          cp      0xc0
000B41 4B41 3005            12          jr      nc, .wrpage3
000B43 4B43 CDD554          17          call    SST39SF010A_WRITE       ; page0-2 の 書込み (HL)<-E
000B46 4B46 1803            12          jr      .@2
       4B48                         .wrpage3
000B48 4B48 CDFA54          17          call    SST39SF010A_WRITE_P3    ; page3 の 書込み (HL)<-E
       4B4B                         .@2
000B4B 4B4B 23               6          inc     HL
000B4C 4B4C 221F5E          16          ld      (WA_STOREROMQRY.write_ptr), HL
000B4F 4B4F 3A295F          13          ld      A, (MSXPICO_IF_STR_STORE_ROM.err_no)
000B52 4B52 B7               4          or      A
000B53 4B53 2013            12          jr      nz, .force_end_write    ; 異常があったら強制終了
000B55 4B55 C1              10          pop     BC
000B56 4B56 0B               6          dec     BC
000B57 4B57 78               4          ld      A, B
000B58 4B58 B1               4          or      C
000B59 4B59 20B6            12          jr      nz, .loop1write
                                        ;
000B5B 4B5B 3A1C5E          13          ld      A, (WA_STOREROMQRY.block_no)
000B5E 4B5E 3C               4          inc     A
000B5F 4B5F 321C5E          13          ld      (WA_STOREROMQRY.block_no), A
000B62 4B62 188F            12          jr      .write_flash_rom
       4B64                         .end_write
                                        ; 終了メッセージ
000B64 4B64 CD134C          17          call    FUNC_DONE_MESSAGE
000B67 4B67 C9              10          ret
       4B68                         .force_end_write    
000B68 4B68 C1              10          pop     BC
000B69 4B69 C9              10          ret
       4B6A                         .addr_table
000B6A 4B6A 00000040008000C0            dw  0x0000, 0x4000, 0x8000, 0xc000
       4B72                         .scr_writeflashrom_progress
000B72 4B72 0512090116                  db  CTXT.box,       18,9, 1,22,
000B77 4B77 02130B5752495445            db  CTXT.prints,    19,11, "WRITE ADDRESS : xxxx", 0, CTXT.EOT
            2041444452455353    
            203A207878787800    
            FF                  
000B90 4B90 0214125B4553435D            db  CTXT.prints,    20,18, "[ESC]:CANCEL", 0, CTXT.EOT
            3A43414E43454C00    
            FF                  
000BA1 4BA1 04150A2018                  db  CTXT.chars,     21,10, " ", 24
000BA6 4BA6 07                          db  CTXT.present
000BA7 4BA7 00                          db  CTXT.endc
                                
                                
                                
                                ;=========================================
                                ; Slot2にSimple ROM Cartridgeが見つからなかったメッセージを表示
                                ;=========================================
       4BA8                     FUNC_NOTFOUND_SIMPLEROM:
       4BA8                         .init
000BA8 4BA8 21B74B          10          ld      HL, .scr_notfound_simplerom
000BAB 4BAB CD1541          17          call    CTXTF.go_scr
000BAE 4BAE CD5601          17          call    B_KILBUF                        ;; キーバッファのクリア
       4BB1                         .wait_key
000BB1 4BB1 CD2E51          17          call    GET_CHAR
000BB4 4BB4 28FB            12          jr      z, .wait_key
000BB6 4BB6 C9              10          ret
       4BB7                         .scr_notfound_simplerom
                                        ;"+-------------------------------+ "
                                        ;"| Not found SimpleROM Cartridge | "
                                        ;"| in Slot2.                     | "
                                        ;"| Please check Slot2.           | "
                                        ;"+-------------------Hit any key-+ "
                                        ;"                                  "
000BB7 4BB7 050C03031F                  db  CTXT.box,       12,3, 3,31
000BBC 4BBC 020D05                      db  CTXT.prints,    13,5,
000BBF 4BBF 4E6F7420666F756E            db      "Not found SimpleROM Cartridge", 0
            642053696D706C65    
            524F4D2043617274    
            726964676500        
000BDD 4BDD 696E20536C6F7432            db      "in Slot2.",0
            2E00                
000BE7 4BE7 506C656173652063            db      "Please check Slot2.",0, CTXT.EOT
            6865636B20536C6F    
            74322E00FF          
000BFC 4BFC 0210174869742061            db  CTXT.prints,    16,23, "Hit any key",0, CTXT.EOT 
            6E79206B657900FF    
000C0C 4C0C 0411042021                  db  CTXT.chars,     17,4, ' ', 33
000C11 4C11 07                          db  CTXT.present
000C12 4C12 00                          db  CTXT.endc
                                
                                ;=========================================
                                ; 作業は完了したよメッセージを表示する
                                ;=========================================
       4C13                     FUNC_DONE_MESSAGE:
       4C13                         .init
000C13 4C13 21224C          10          ld      HL, .scr_done
000C16 4C16 CD1541          17          call    CTXTF.go_scr
000C19 4C19 CD5601          17          call    B_KILBUF                        ;; キーバッファのクリア
       4C1C                         .wait_key
000C1C 4C1C CD2E51          17          call    GET_CHAR
000C1F 4C1F 28FB            12          jr      z, .wait_key
000C21 4C21 C9              10          ret
       4C22                         .scr_done
                                        ;"+-------------------------------+ "
                                        ;"|                               | "
                                        ;"|  *** Process completed!! ***  | "
                                        ;"|                               | "
                                        ;"+-------------------Hit any key-+ "
000C22 4C22 050605031E                  db  CTXT.box,       6,5, 3,30
000C27 4C27 0208072A2A2A2A20            db  CTXT.prints,    8,7, "**** Process completed. ****",0, CTXT.EOT
            50726F6365737320    
            636F6D706C657465    
            642E202A2A2A2A00    
            FF                  
000C48 4C48 020A184869742061            db  CTXT.prints,    10,24, "Hit any key",0, CTXT.EOT 
            6E79206B657900FF    
000C58 4C58 040B062020                  db  CTXT.chars,     11,6, ' ', 32
000C5D 4C5D 07                          db  CTXT.present
000C5E 4C5E 00                          db  CTXT.endc
                                
                                ;=========================================
                                ; E-Paperをクリアする問い合わせ
                                ;=========================================
       4C5F                     FUNC_CLEAR_EPAPER_QUERY:
       4C5F                         .init
000C5F 4C5F 21714C          10          ld      HL, .scr_clear_epaper_query
000C62 4C62 CDAB44          17          call    CTXT_MENU
000C65 4C65 C9              10          ret
       4C66                         .item_cancel
000C66 4C66 C9              10          ret
       4C67                         .item_ok
000C67 4C67 CD1244          17          call    GET_FILENO              ;; file no -> A
000C6A 4C6A 47               4          ld      B, A
000C6B 4C6B 3E0A             7          ld      A, IFCMD.CLEAR_E_PAPER
000C6D 4C6D CD8044          17          call    FUNC_CMD_TO_CTARK
000C70 4C70 C9              10          ret
       4C71                         .scr_clear_epaper_query
                                        ; "+--------------------------------+"
                                        ; "|  Clear the E-Paper, OK?        |"
                                        ; "+--------------------------------+"
                                        ; "|          > CANCEL              |"
                                        ; "|            OK                  |"
                                        ; "+-------------------[ESC]:CANCEL-+"
000C71 4C71 050803041F                  db  CTXT.box,       8,3, 4, 31
000C76 4C76 060A031F                    db  CTXT.boxseph,   10,3, 31
000C7A 4C7A 020905436C656172            db  CTXT.prints,    9,5, "Clear the E-Paper, OK?", 0, CTXT.EOT
            2074686520452D50    
            617065722C204F4B    
            3F00FF              
000C95 4C95 020B0F43414E4345            db  CTXT.prints,    11,15, "CANCEL", 0, "OK", 0, CTXT.EOT
            4C004F4B00FF        
000CA3 4CA3 020D165B4553435D            db  CTXT.prints,    13,22, "[ESC]:CANCEL", 0, CTXT.EOT
            3A43414E43454C00    
            FF                  
000CB4 4CB4 040E042021                  db  CTXT.chars,     14,4, ' ', 33
000CB9 4CB9 07                          db  CTXT.present
000CBA 4CBA 00                          db  CTXT.endc
000CBB 4CBB 02                          db  2           ; 選択項目数
000CBC 4CBC 0E0B                        db  14, 11      ; カーソル原点座標 X,Y
000CBE 4CBE 01                          db  1           ; デフォルト選択されている綱目番号
000CBF 4CBF 664C                        dw  .item_cancel
000CC1 4CC1 674C                        dw  .item_ok
                                
                                ;=========================================
                                ; SIMPLE_ROM_CARTRIDGE の消去用メニュー
                                ;=========================================
       4CC3                     FUNC_ROM_ERASER:
       4CC3                         .init
000CC3 4CC3 CD2C54          17          call    SST39SF010A_CHECK
000CC6 4CC6 22215E          16          ld      (WA_STOREROMQRY.device), HL
000CC9 4CC9 CD8F46          17          call    FUNC_PRT_CHIPMODEL
000CCC 4CCC B7               4          or      A
000CCD 4CCD 2007            12          jr      nz, .found_simplerom
                                        ; not_found_simplerom
000CCF 4CCF CDC000          17          call    B_BEEP
000CD2 4CD2 CDA84B          17          call    FUNC_NOTFOUND_SIMPLEROM
000CD5 4CD5 C9              10          ret
       4CD6                         .found_simplerom
000CD6 4CD6 21E04C          10          ld      HL, .scr_rom_eraser
000CD9 4CD9 CDAB44          17          call    CTXT_MENU
000CDC 4CDC CA6A4D          10          jp      z, .item_cancel
000CDF 4CDF C9              10          ret
       4CE0                         .scr_rom_eraser
                                        ; "+ROM ERASER ----------------+"
                                        ; "|Target slot is SLOT2 only  |"
                                        ; "+---------------------------+"
                                        ; "|  ALL ERASE                |"
                                        ; "|  64K ERASE                |"
                                        ; "|  CANCEL                   |"
                                        ; "+--------------[ESC]:CANCEL-+"
000CE0 4CE0 050501051E                  db  CTXT.box,       5,1, 5,30
000CE5 4CE5 020502                      db  CTXT.prints,    5,2,
000CE8 4CE8 524F4D2045524153            db      "ROM ERASER", 0
            455200              
000CF3 4CF3 5461726765742073            db      "Target slot is SLOT2 only", 0, CTXT.EOT
            6C6F742069732053    
            4C4F5432206F6E6C    
            7900FF              
000D0E 4D0E 0607011E                    db  CTXT.boxseph,   7,1, 30
000D12 4D12 020804                      db  CTXT.prints,    8,4,
000D15 4D15 414C4C2020284348            db      "ALL  (CHIP ERASE)", 0
            4950204552415345    
            2900                
000D27 4D27 36344B2020283030            db      "64K  (0000-FFFF)", 0
            30302D4646464629    
            00                  
000D38 4D38 43414E43454C00FF            db      "CANCEL", 0, CTXT.EOT
000D40 4D40 020B135B4553435D            db  CTXT.prints,    11,19, "[ESC]:CANCEL", 0, CTXT.EOT
            3A43414E43454C00    
            FF                  
000D51 4D51 040C022020                  db  CTXT.chars,     12,2, ' ', 32
000D56 4D56 07                          db  CTXT.present
000D57 4D57 00                          db  CTXT.endc
000D58 4D58 03                          db  3           ; 選択項目数
000D59 4D59 0308                        db  3, 8        ; カーソル原点座標 X,Y
000D5B 4D5B 01                          db  1           ; デフォルト選択されている綱目番号
000D5C 4D5C 624D                        dw  .item_erase_all
000D5E 4D5E 664D                        dw  .item_erase_64k
000D60 4D60 6A4D                        dw  .item_cancel
       4D62                         .item_erase_all
000D62 4D62 CD8647          17          call    FUNC_CHIPERASE_QUERY    ; チップ全体を消去する
000D65 4D65 C9              10          ret
       4D66                         .item_erase_64k
000D66 4D66 CDE047          17          call    FUNC_64KERASE_QUERY     ; Z80から見える64KBの空間を消去する
000D69 4D69 C9              10          ret
       4D6A                         .item_cancel
000D6A 4D6A C9              10          ret
                                
                                ;=========================================
                                ; ROM読み取りとファイルへの書き込み処理
                                ;=========================================
       4D6B                     FUNC_FWRITE_PROGRESS:
       4D6B                         .start
                                    ; 入力されたファイル名の取り込み
000D6B 4D6B 21235E          10          ld      HL, WA_FNAME.name
000D6E 4D6E 11285F          10          ld      DE, MSXPICO_IF_STR_WR_FILE.cmd_fwr_fspec
000D71 4D71 3A2C5E          13          ld      A, (WA_FNAME.len)
000D74 4D74 47               4          ld      B, A
       4D75                         .@1
000D75 4D75 7E               7          ld      A, (HL)
000D76 4D76 FE20             7          cp      ' '
000D78 4D78 2809            12          jr      z, .@2
000D7A 4D7A FE00             7          cp      0x00
000D7C 4D7C 2805            12          jr      z, .@2
000D7E 4D7E 12               7          ld      (DE), A
000D7F 4D7F 23               6          inc     HL
000D80 4D80 13               6          inc     DE
000D81 4D81 10F2            13          djnz    .@1
       4D83                         .@2
000D83 4D83 AF               4          xor     A
000D84 4D84 12               7          ld      (DE), A ; "\0"
                                    ;
000D85 4D85 21014E          10          ld      HL, .scr_fwrite_progress
000D88 4D88 CD1541          17          call    CTXTF.go_scr
000D8B 4D8B CD5601          17          call    B_KILBUF
000D8E 4D8E AF               4          xor     A
000D8F 4D8F 322D5E          13          ld      (WA_FWRPROG.block_cnt), A       ; start_addrs[0]を表している
       4D92                         .page_loop
000D92 4D92 CB27             8          sla     A               ; A *= 2
000D94 4D94 4F               4          ld      C, A
000D95 4D95 0600             7          ld      B, 0
000D97 4D97 21F94D          10          ld      HL, .start_addrs
000D9A 4D9A 09              11          add     HL, BC
000D9B 4D9B 4E               7          ld      C, (HL)
000D9C 4D9C 23               6          inc     HL
000D9D 4D9D 46               7          ld      B, (HL)
000D9E 4D9E ED432E5E        20          ld      (WA_FWRPROG.read_ptr), BC
                                    ; ; 読み取りアドレスを表示
                                    ;   ld      DE, 0x1a13          ; locate(26,19)
                                    ;   call    CTXTF.buff_print4hex
                                    ;   call    CTXTF.buff_present
                                
                                    ;読み取りを始める
000DA2 4DA2 21315F          10          ld      HL, MSXPICO_IF_STR_WR_FILE.block_data
000DA5 4DA5 22305E          16          ld      (WA_FWRPROG.write_ptr), HL
000DA8 4DA8 010020          10          ld      BC, MSXPICO_IF_STR_WR_FILE.BLOCK_SIZE
       4DAB                         .loop_block
000DAB 4DAB C5              11          push    BC
000DAC 4DAC CD2E51          17          call    GET_CHAR
000DAF 4DAF FE1B             7          cp      KEY_ESC         ; ESCキーで中断する
000DB1 4DB1 2844            12          jr      z, .force_prog_end
                                        ;
                                        ; 読み取りアドレスを表示
000DB3 4DB3 ED4B2E5E        20          ld      BC, (WA_FWRPROG.read_ptr)
000DB7 4DB7 AF               4          xor     A
000DB8 4DB8 B9               4          cp      C
000DB9 4DB9 2009            12          jr      nz, .@1
000DBB 4DBB 11131A          10          ld      DE, 0x1a13          ; locate(26,19)
000DBE 4DBE CDC440          17          call    CTXTF.buff_print4hex
000DC1 4DC1 CDCD40          17          call    CTXTF.buff_present
       4DC4                         .@1
000DC4 4DC4 2A2E5E          16          ld      HL, (WA_FWRPROG.read_ptr)
000DC7 4DC7 3E02             7          ld      A, 0x02             ; Primary slot no.2
000DC9 4DC9 CD0C00          17          call    B_RDSLT             ; read value -> A, use AF,BC,DE
000DCC 4DCC 23               6          inc     HL
000DCD 4DCD 222E5E          16          ld      (WA_FWRPROG.read_ptr), HL
000DD0 4DD0 2A305E          16          ld      HL, (WA_FWRPROG.write_ptr)
000DD3 4DD3 77               7          ld      (HL), A
000DD4 4DD4 23               6          inc     HL
000DD5 4DD5 22305E          16          ld      (WA_FWRPROG.write_ptr), HL
                                
000DD8 4DD8 C1              10          pop     BC
000DD9 4DD9 0B               6          dec     BC
000DDA 4DDA 78               4          ld      A, B
000DDB 4DDB B1               4          or      C           ;; BCが 0 か否か？
000DDC 4DDC 20CD            12          jr      nz, .loop_block
                                        ; 書き込み依頼
000DDE 4DDE 3A2D5E          13          ld      A, (WA_FWRPROG.block_cnt)
000DE1 4DE1 47               4          ld      B, A
000DE2 4DE2 3E06             7          ld      A, IFCMD.WR_FILE
000DE4 4DE4 CD8044          17          call    FUNC_CMD_TO_CTARK
                                        ;
000DE7 4DE7 3A2D5E          13          ld      A, (WA_FWRPROG.block_cnt)
000DEA 4DEA 3C               4          inc     A
000DEB 4DEB 322D5E          13          ld      (WA_FWRPROG.block_cnt), A
000DEE 4DEE FE04             7          cp      4
000DF0 4DF0 C2924D          10          jp      nz, .page_loop
       4DF3                         .prog_end
                                        ; 終了メッセージ
000DF3 4DF3 CD134C          17          call    FUNC_DONE_MESSAGE
000DF6 4DF6 C9              10          ret
       4DF7                         .force_prog_end
000DF7 4DF7 C1              10          pop     BC
000DF8 4DF8 C9              10          ret
                                
       4DF9                         .start_addrs
000DF9 4DF9 00400060008000A0            dw      0x4000, 0x6000, 0x8000, 0xA000
       4E01                         .scr_fwrite_progress
                                        ; "+---------------------+ "
                                        ; "| READ ADDRESS : xxxx | "
                                        ; "+--------[ESC]:CANCEL-+ "
                                        ; "                        "
000E01 4E01 0512090115                  db  CTXT.box,       18,9, 1,21
000E06 4E06 02130B5245414420            db  CTXT.prints,    19,11, "READ ADDRESS : xxxx", 0, CTXT.EOT
            4144445245535320    
            3A207878787800FF    
000E1E 4E1E 0214115B4553435D            db  CTXT.prints,    20,17, "[ESC]:CANCEL", 0, CTXT.EOT
            3A43414E43454C00    
            FF                  
000E2F 4E2F 04150A2017                  db  CTXT.chars,     21,10, ' ', 23
000E34 4E34 07                          db  CTXT.present
000E35 4E35 00                          db  CTXT.endc
                                
                                ;=========================================
                                ; CHANGE PICO CPU CLOCK
                                ;=========================================
       4E36                     FUNC_CPUCLOCK:
       4E36                         .init
000E36 4E36 213D4E          10          ld      HL, .scr_cpuclock
000E39 4E39 CDAB44          17          call    CTXT_MENU
000E3C 4E3C C9              10          ret
       4E3D                         .scr_cpuclock
                                        ; "+-CHANGE PICO CPU CLOCK--+"
                                        ; "|  150MHz                |"
                                        ; "|  170MHz                |"
                                        ; "|  300MHz                |"
                                        ; "|  CANCEL                |"
                                        ; "+-----------[ESC]:CANCEL-+"
000E3D 4E3D 0505010416                  db  CTXT.box,       5,1, 4, 22
000E42 4E42 0205024348414E47            db  CTXT.prints,    5,2, "CHANGE PICO CPU CLOCK-", 0, CTXT.EOT
            45205049434F2043    
            505520434C4F434B    
            2D00FF              
000E5D 4E5D 020604                      db  CTXT.prints,    6,4,
000E60 4E60 3135304D487A0031            db      "150MHz",0, "170MHz",0, "300MHz",0, "CANCEL",0, CTXT.EOT
            37304D487A003330    
            304D487A0043414E    
            43454C00FF          
000E7D 4E7D 020A0B5B4553435D            db  CTXT.prints,    10,11, "[ESC]:CANCEL", 0, CTXT.EOT
            3A43414E43454C00    
            FF                  
000E8E 4E8E 040B022017                  db  CTXT.chars,     11,2, ' ', 23
000E93 4E93 07                          db  CTXT.present
000E94 4E94 00                          db  CTXT.endc
000E95 4E95 04                          db  4           ; 選択項目数
000E96 4E96 0306                        db  3, 6        ; カーソル原点座標 X,Y
000E98 4E98 01                          db  1           ; デフォルト選択されている綱目番号
000E99 4E99 A14E                        dw  .item_150mhz
000E9B 4E9B A94E                        dw  .item_170mhz
000E9D 4E9D B14E                        dw  .item_300mhz
000E9F 4E9F B94E                        dw  .item_cancel
       4EA1                         .item_150mhz
000EA1 4EA1 0619             7          ld      B, 25       ; 150MHz(125+25)
000EA3 4EA3 3E09             7          ld      A, IFCMD.SET_FREQ
000EA5 4EA5 CD8044          17          call    FUNC_CMD_TO_CTARK
000EA8 4EA8 C9              10          ret
       4EA9                         .item_170mhz
000EA9 4EA9 062D             7          ld      B, 45       ; 170MHz(125+45)
000EAB 4EAB 3E09             7          ld      A, IFCMD.SET_FREQ
000EAD 4EAD CD8044          17          call    FUNC_CMD_TO_CTARK
000EB0 4EB0 C9              10          ret
       4EB1                         .item_300mhz
000EB1 4EB1 06AF             7          ld      B, 175      ; 300MHz(125+175)
000EB3 4EB3 3E09             7          ld      A, IFCMD.SET_FREQ
000EB5 4EB5 CD8044          17          call    FUNC_CMD_TO_CTARK
000EB8 4EB8 C9              10          ret
       4EB9                         .item_cancel
000EB9 4EB9 C9              10          ret
                                
                                ;=========================================
                                ; システムメニュー
                                ;=========================================
       4EBA                     FUNC_SYSTEM_MENU:
       4EBA                         .init
000EBA 4EBA 21C14E          10          ld      HL, .scr_system_menu
000EBD 4EBD CDAB44          17          call    CTXT_MENU
000EC0 4EC0 C9              10          ret
       4EC1                         .scr_system_menu
                                        ; "+-MENU------------------------------+",
                                        ; "|  ROM CARTRIDGE(Slot2) ➡ FILE     |",
                                        ; "|  REMOVE BOOT ROM                  |",
                                        ; "|  ROM ERASER(SIMPLE ROM CARTRIDGE) |",
                                        ; "|  CLEAR E-PAPER                    |",
                                        ; "|  CHANGE PICO-CPU CLOCK            |",
                                        ; "|  INFOMATION                       |",
                                        ; "|  CANCEL                           |",
                                        ; "+----------------------[ESC]:CANCEL-+",
000EC1 4EC1 0504000626                  db  CTXT.box,       4,0, 6,38
000EC6 4EC6 0204014D454E5500            db  CTXT.prints,    4,1,    "MENU", 0x00, CTXT.EOT
            FF                  
000ECF 4ECF 020503                      db  CTXT.prints,    5,3 
000ED2 4ED2 524F4D2043415254            db      "ROM CARTRIDGE(Slot2) ", ARROW_CHAR, " FILE", 0x00
            524944474528536C    
            6F74322920222046    
            494C4500            
000EEE 4EEE 52454D4F56452042            db      "REMOVE BOOT ROM", 0x00
            4F4F5420524F4D00    
000EFE 4EFE 524F4D2045524153            db      "ROM ERASER (SIMPLE ROM CARTRIDGE)", 0x00
            4552202853494D50    
            4C4520524F4D2043    
            4152545249444745    
            2900                
000F20 4F20 434C45415220452D            db      "CLEAR E-PAPER  ", 0x00
            5041504552202000    
000F30 4F30 4348414E47452050            db      "CHANGE PICO-CPU CLOCK", 0x00
            49434F2D43505520    
            434C4F434B00        
                                    ;   db      "INFOMATION", 0x00
000F46 4F46 43414E43454C00              db      "CANCEL", 0x00
000F4D 4F4D FF                          db      CTXT.EOT
000F4E 4F4E 020B185B4553435D            db  CTXT.prints,    11,24,  "[ESC]:CANCEL", 0x00, CTXT.EOT
            3A43414E43454C00    
            FF                  
000F5F 4F5F 040C012026                  db  CTXT.chars,     12,1,   " ", 38
000F64 4F64 07                          db  CTXT.present
000F65 4F65 00                          db  CTXT.endc
000F66 4F66 06                          db  6           ; 選択項目数
000F67 4F67 0205                        db  2, 5        ; カーソル原点座標 X,Y
000F69 4F69 01                          db  1           ; デフォルト選択されている綱目番号
000F6A 4F6A 764F                        dw  .item_cartridge_to_romfile
000F6C 4F6C 7A4F                        dw  .item_remove_boot_rom
000F6E 4F6E 824F                        dw  .item_rom_eraser
000F70 4F70 864F                        dw  .item_clr_epaper
000F72 4F72 8A4F                        dw  .item_cpuclock
                                    ;   dw  .item_infomation
000F74 4F74 914F                        dw  .item_cancel
       4F76                         .item_cartridge_to_romfile
000F76 4F76 CDF142          17          call    START_CT_ARK.cmd_write_file
000F79 4F79 C9              10          ret
       4F7A                         .item_remove_boot_rom
                                    ; 選択した起動するROMファイルの番号をPico側に伝える
000F7A 4F7A AF               4          xor     A                   ; 0 = remove boot rom
000F7B 4F7B 47               4          ld      B, A
000F7C 4F7C 3E04             7          ld      A, IFCMD.SET_ROM
000F7E 4F7E CD8044          17          call    FUNC_CMD_TO_CTARK
000F81 4F81 C9              10          ret 
       4F82                         .item_rom_eraser
000F82 4F82 CDC34C          17          call    FUNC_ROM_ERASER
000F85 4F85 C9              10          ret
       4F86                         .item_clr_epaper
000F86 4F86 CD5F4C          17          call    FUNC_CLEAR_EPAPER_QUERY
000F89 4F89 C9              10          ret
       4F8A                         .item_cpuclock
000F8A 4F8A CD364E          17          call    FUNC_CPUCLOCK
000F8D 4F8D CD4C51          17          call    UPDATE_SYSTEM_INFO  ; CPUクロックの表示を更新するため
000F90 4F90 C9              10          ret
                                    ;.item_infomation
                                    ;   call    FUNC_INFOMATION
                                    ;   ret
       4F91                         .item_cancel
000F91 4F91 C9              10          ret
                                
                                ; ==========================================================
                                ; 選択ファイルのファイル名（除く拡張子）を指定域にコピーする
                                ; ==========================================================
                                ; @param A カーソル位置 1～
                                ; @param HL コピー先
                                ; @return C 文字数
                                ; @usereg AF,BC,DE,HL,IX
       4F92                     COPY_FILESPEC:
000F92 4F92 B7               4          or      A
000F93 4F93 C8              11          ret     z
                                    ;
000F94 4F94 E5              11          push    HL  ; IX <- HL
000F95 4F95 DDE1            14          pop     IX
000F97 4F97 CD0344          17          call    GET_PTR_FILERECORD
000F9A 4F9A 23               6          inc     HL
000F9B 4F9B 23               6          inc     HL
000F9C 4F9C 23               6          inc     HL
000F9D 4F9D 0E00             7          ld      C, 0
       4F9F                         .copy_loop
000F9F 4F9F 7E               7          ld      A, (HL)
000FA0 4FA0 23               6          inc     HL
000FA1 4FA1 B7               4          or      A
000FA2 4FA2 2810            12          jr      z, .copy_end
000FA4 4FA4 FE2E             7          cp      '.'
000FA6 4FA6 280C            12          jr      z, .copy_end
000FA8 4FA8 FE20             7          cp      ' '
000FAA 4FAA 2808            12          jr      z, .copy_end
000FAC 4FAC DD7700          19          ld      (IX+0), A
000FAF 4FAF DD23            10          inc     IX
000FB1 4FB1 0C               4          inc     C
000FB2 4FB2 18EB            12          jr      .copy_loop
       4FB4                         .copy_end
000FB4 4FB4 C9              10          ret
                                
                                ; =====================================
                                ; SCREEN 0, WIDTH40 に設定する
                                ; =====================================
       4FB5                     SCREEN0_40x24:
       006C                     .INITXT     equ 0x006C  ;; BIOS: 画面を TEXT1 モード (40*24) に初期化
       F3AE                     .LINL40     equ 0xF3AE  ;; B_INITXT: 1 行の幅
       F3B3                     .TATNAM     equ 0xF3B3  ;; B_INITXT: パターンネーム・テーブル
       F3B7                     .TXTCGP     equ 0xF3B7  ;; B_INITXT: パターンジェネレータ・テーブル
       4FB5                         .start
000FB5 4FB5 3E28             7          ld      A, 40
000FB7 4FB7 32AEF3          13          ld      (.LINL40), A
000FBA 4FBA 210000          10          ld      HL, 0x0000
000FBD 4FBD 22B3F3          16          ld      (.TATNAM), HL
000FC0 4FC0 210008          10          ld      HL, 0x0800
000FC3 4FC3 22B7F3          16          ld      (.TXTCGP), HL
000FC6 4FC6 CD6C00          17          call    .INITXT
000FC9 4FC9 C9              10          ret
                                
                                ; =====================================
                                ; lns構造の文字列を表示する
                                ; =====================================
                                ; HL = pointer of window structure
                                ; 使用レジスタ AL, B, HL, IX
       4FCA                     PRINT_LNS:
       4FCA                         .start
000FCA 4FCA E5              11          push    HL
000FCB 4FCB DDE1            14          pop     IX
000FCD 4FCD DD4600          19          ld      B, (IX+0)   ;; lines
000FD0 4FD0 DD23            10          inc     IX
000FD2 4FD2 DD6E00          19          ld      L, (IX+0)   ;; locate
000FD5 4FD5 DD23            10          inc     IX
000FD7 4FD7 DD6600          19          ld      H, (IX+0)
000FDA 4FDA DD23            10          inc     IX
       4FDC                         .step1
000FDC 4FDC CDC600          17          call    B_POSIT
000FDF 4FDF 2C               4          inc     L
000FE0 4FE0 E5              11          push    HL
                                        
000FE1 4FE1 DDE5            15          push    IX
000FE3 4FE3 E1              10          pop     HL
000FE4 4FE4 CDEE4F          17          call    PRINT_STR
000FE7 4FE7 E5              11          push    HL
000FE8 4FE8 DDE1            14          pop     IX
                                        
000FEA 4FEA E1              10          pop     HL
000FEB 4FEB 10EF            13          djnz    .step1
000FED 4FED C9              10          ret
                                
                                ; =====================================
                                ; 0x00終端の文字列を表示する
                                ; =====================================
                                ; HL = 文字列へのアドレス
                                ; 変更レジスタ HL, AF
       4FEE                     PRINT_STR:
       4FEE                         .start
000FEE 4FEE 7E               7          ld      A, (HL)
000FEF 4FEF 23               6          inc     HL
000FF0 4FF0 B7               4          or      A
000FF1 4FF1 C8              11          ret     z
000FF2 4FF2 CDA200          17          call    B_CHPUT
000FF5 4FF5 18F7            12          jr      .start
                                
       4FF7                     PRINT_CHARS:
                                    ; A = char
                                    ; B = num
       4FF7                         .start
000FF7 4FF7 CDA200          17          call    B_CHPUT
000FFA 4FFA 10FB            13          djnz    .start
000FFC 4FFC C9              10          ret
                                
                                ; =====================================
                                ; 16bitを四桁の１６進数文字列に変換する
                                ; =====================================
                                ; @param BC value
                                ; @param HL dest ptr
       4FFD                     HEX16TOSTR:
       4FFD                         .start
000FFD 4FFD AF               4          xor     A
000FFE 4FFE 57               4          ld      D, A
                                
000FFF 4FFF CB08             8          rrc     B
001001 5001 CB08             8          rrc     B
001003 5003 CB08             8          rrc     B
001005 5005 CB08             8          rrc     B
001007 5007 78               4          ld      A, B
001008 5008 CD0F51          17          call    TOSTR_ONECONV
00100B 500B CB08             8          rrc     B
00100D 500D CB08             8          rrc     B
00100F 500F CB08             8          rrc     B
001011 5011 CB08             8          rrc     B
001013 5013 78               4          ld      A, B
001014 5014 CD0F51          17          call    TOSTR_ONECONV
001017 5017 CB09             8          rrc     C
001019 5019 CB09             8          rrc     C
00101B 501B CB09             8          rrc     C
00101D 501D CB09             8          rrc     C
00101F 501F 79               4          ld      A, C
001020 5020 CD0F51          17          call    TOSTR_ONECONV
001023 5023 CB09             8          rrc     C
001025 5025 CB09             8          rrc     C
001027 5027 CB09             8          rrc     C
001029 5029 CB09             8          rrc     C
00102B 502B 79               4          ld      A, C
00102C 502C CD0F51          17          call    TOSTR_ONECONV
00102F 502F 72               7          ld      (HL), D     ;; '\0'
001030 5030 C9              10          ret
                                
                                ; =====================================
                                ; 二桁の１０進数文字列に変換する（00形式)
                                ; =====================================
                                ; @param A value(0-99)
                                ; @param HL dest ptr
       5031                     DEC2TOSTR:
       5031                         .start
001031 5031 C5              11          push    BC
001032 5032 01000A          10          ld      BC, 0x0a00
001035 5035 CD2553          17          call    DIV8R           ; C=十の位、A=一の位
001038 5038 47               4          ld      B, A
001039 5039 3E30             7          ld      A, '0'
00103B 503B 81               4          add     A, C
00103C 503C 77               7          ld      (HL), A
00103D 503D 23               6          inc     HL
00103E 503E 3E30             7          ld      A, '0'
001040 5040 80               4          add     A, B
001041 5041 77               7          ld      (HL), A
001042 5042 23               6          inc     HL
                                        ; 終端'\0'
001043 5043 AF               4          xor     A
001044 5044 77               7          ld      (HL), A
001045 5045 C1              10          pop     BC
001046 5046 C9              10          ret
                                
                                ; =====================================
                                ; 三桁の１０進数文字列に変換する（0-255→000形式)
                                ; =====================================
                                ; @param A value(0-255)
                                ; @param HL dest ptr
       5047                     DEC3TOSTR:
       5047                         .start
001047 5047 C5              11          push    BC
                                    ;
001048 5048 010064          10          ld      BC, 0x6400      ; A/100 → C=百の位、A=あまり（100未満の値）
00104B 504B CD2553          17          call    DIV8R
00104E 504E 47               4          ld      B, A
00104F 504F 3E30             7          ld      A, '0'
001051 5051 81               4          add     A, C
001052 5052 77               7          ld      (HL), A
001053 5053 23               6          inc     HL
001054 5054 78               4          ld      A, B
                                    ;
001055 5055 01000A          10          ld      BC, 0x0a00      ; A/10 → C=十の位、A=一の位
001058 5058 CD2553          17          call    DIV8R
00105B 505B 47               4          ld      B, A
00105C 505C 3E30             7          ld      A, '0'
00105E 505E 81               4          add     A, C
00105F 505F 77               7          ld      (HL), A
001060 5060 23               6          inc     HL
001061 5061 3E30             7          ld      A, '0'
001063 5063 80               4          add     A, B
001064 5064 77               7          ld      (HL), A
001065 5065 23               6          inc     HL
                                    ; 終端'\0'
001066 5066 AF               4          xor     A
001067 5067 77               7          ld      (HL), A
                                    ;
001068 5068 C1              10          pop     BC
001069 5069 C9              10          ret
                                
                                ; =====================================
                                ; 三桁の１０進数文字列に変換する（0-999→000形式)
                                ; =====================================
                                ; @param DE value(0-999) ※1000以上はNG
                                ; @param HL dest ptr
                                
       506A                     DEC3TOSTR999:
       506A                         .start
00106A 506A 7A               4          ld      A, D
00106B 506B B7               4          or      A
00106C 506C 2022            12          jr      nz, .over999     ; 念のため（999 超えは処理しない）
                                
                                        ; --- 百の位を求める ---
00106E 506E 7B               4          ld      A,E
00106F 506F FE64             7          cp      100
001071 5071 3806            12          jr      c,.less100
001073 5073 D664             7          sub     100
001075 5075 0631             7          ld      B,'1'
001077 5077 1802            12          jr      .got_hund
       5079                         .less100
001079 5079 0630             7          ld      B,'0'
       507B                         .got_hund
00107B 507B 70               7          ld      (HL),B
00107C 507C 23               6          inc     HL
                                
                                        ; --- 十の位を求める ---
00107D 507D 0630             7          ld      B,'0'
       507F                         .ten_loop
00107F 507F FE0A             7          cp      10
001081 5081 3805            12          jr      c,.ten_done
001083 5083 D60A             7          sub     10
001085 5085 04               4          inc     B
001086 5086 18F7            12          jr      .ten_loop
       5088                         .ten_done
001088 5088 70               7          ld      (HL),B
001089 5089 23               6          inc     HL
                                
                                        ; --- 一の位 ---
00108A 508A C630             7          add     A,'0'
00108C 508C 77               7          ld      (HL),A
00108D 508D 1809            12              jr      .terminator
00108F 508F C9              10          ret
       5090                         .over999
                                        ; 999 超えは "999" を返す
001090 5090 3639            10          ld      (HL),'9'
001092 5092 23               6          inc     HL
001093 5093 3639            10          ld      (HL),'9'
001095 5095 23               6          inc     HL
001096 5096 3639            10          ld      (HL),'9'
       5098                         .terminator
001098 5098 23               6          inc     HL
001099 5099 AF               4          xor     A
00109A 509A 77               7          ld      (HL),A
00109B 509B C9              10          ret
                                
                                ; =====================================
                                ; 5桁の10進数文字列に変換する（0-65535 → 00000形式）
                                ; =====================================
                                ; @param DE  value (0-65535)
                                ; @param HL  dest ptr ("00000",0 の 6バイト)
                                ; =====================================
                                
       509C                         DEC5TOSTR65535:
       509C                         .start
00109C 509C E5              11          push    HL
                                        ; 値を HL に、出力ポインタを DE に退避
00109D 509D EB               4          ex      DE,HL          ; HL = value, DE = dest
                                
                                        ; --- 10000 の位 ---
00109E 509E 011027          10          ld      BC,10000
0010A1 50A1 3E30             7          ld      A,'0'
       50A3                         .dig10000
0010A3 50A3 B7               4          or      A              ; C=0
0010A4 50A4 ED42            15          sbc     HL,BC          ; HL -= 10000
0010A6 50A6 3803            12          jr      c,.done10000
0010A8 50A8 3C               4          inc     A              ; digit++
0010A9 50A9 18F8            12          jr      .dig10000
       50AB                         .done10000
0010AB 50AB 09              11          add     HL,BC          ; 負になった分を戻す → remainder
0010AC 50AC 12               7          ld      (DE),A
0010AD 50AD 13               6          inc     DE
                                
                                        ; --- 1000 の位 ---
0010AE 50AE 01E803          10          ld      BC,1000
0010B1 50B1 3E30             7          ld      A,'0'
       50B3                         .dig1000
0010B3 50B3 B7               4          or      A
0010B4 50B4 ED42            15          sbc     HL,BC
0010B6 50B6 3803            12          jr      c,.done1000
0010B8 50B8 3C               4          inc     A
0010B9 50B9 18F8            12          jr      .dig1000
       50BB                         .done1000
0010BB 50BB 09              11          add     HL,BC
0010BC 50BC 12               7          ld      (DE),A
0010BD 50BD 13               6          inc     DE
                                
                                        ; --- 100 の位 ---
0010BE 50BE 016400          10          ld      BC,100
0010C1 50C1 3E30             7          ld      A,'0'
       50C3                         .dig100
0010C3 50C3 B7               4          or      A
0010C4 50C4 ED42            15          sbc     HL,BC
0010C6 50C6 3803            12          jr      c,.done100
0010C8 50C8 3C               4          inc     A
0010C9 50C9 18F8            12          jr      .dig100
       50CB                         .done100
0010CB 50CB 09              11          add     HL,BC
0010CC 50CC 12               7          ld      (DE),A
0010CD 50CD 13               6          inc     DE
                                
                                        ; --- 10 の位 ---
0010CE 50CE 010A00          10          ld      BC,10
0010D1 50D1 3E30             7          ld      A,'0'
       50D3                         .dig10
0010D3 50D3 B7               4          or      A
0010D4 50D4 ED42            15          sbc     HL,BC
0010D6 50D6 3803            12          jr      c,.done10
0010D8 50D8 3C               4          inc     A
0010D9 50D9 18F8            12          jr      .dig10
       50DB                         .done10
0010DB 50DB 09              11          add     HL,BC
0010DC 50DC 12               7          ld      (DE),A
0010DD 50DD 13               6          inc     DE
                                
                                        ; --- 1 の位（ここで HL < 10 が保証されている） ---
0010DE 50DE 7D               4          ld      A,L
0010DF 50DF C630             7          add     A,'0'
0010E1 50E1 12               7          ld      (DE),A
0010E2 50E2 13               6          inc     DE
                                
                                        ; --- 終端 ---
0010E3 50E3 AF               4          xor     A
0010E4 50E4 12               7          ld      (DE),A
                                
                                        ; delete '0'prefix
0010E5 50E5 0604             7          ld      B,4
0010E7 50E7 E1              10          pop     HL
       50E8                         .@@
0010E8 50E8 7E               7          ld      A,(HL)
0010E9 50E9 FE30             7          cp      '0'
0010EB 50EB 2005            12          jr      nz,.finish
0010ED 50ED 3620            10          ld      (HL),' '
0010EF 50EF 23               6          inc     HL
0010F0 50F0 10F6            13          djnz    .@@B
       50F2                         .finish
0010F2 50F2 C9              10          ret
                                
                                
                                ; =====================================
                                ; 8bitを二桁の１６進数文字列に変換する
                                ; =====================================
                                ; @param B value
                                ; @param HL dest ptr
                                ; @note use DE,HL,IX
       50F3                     HEX8TOSTR:
       50F3                         .start
0010F3 50F3 AF               4          xor     A
0010F4 50F4 57               4          ld      D, A
                                
0010F5 50F5 CB08             8          rrc     B
0010F7 50F7 CB08             8          rrc     B
0010F9 50F9 CB08             8          rrc     B
0010FB 50FB CB08             8          rrc     B
0010FD 50FD 78               4          ld      A, B
0010FE 50FE CD0F51          17          call    TOSTR_ONECONV
001101 5101 CB08             8          rrc     B
001103 5103 CB08             8          rrc     B
001105 5105 CB08             8          rrc     B
001107 5107 CB08             8          rrc     B
001109 5109 78               4          ld      A, B
00110A 510A CD0F51          17          call    TOSTR_ONECONV
00110D 510D 72               7          ld      (HL), D     ;; '\0'
00110E 510E C9              10          ret
                                
       510F                     TOSTR_ONECONV:
                                    ; A=4bit-val
                                    ; D=0
       510F                         .start
00110F 510F E60F             7          and     0x0f
001111 5111 5F               4          ld      E, A
001112 5112 DD211E51        14          ld      IX, .chars
001116 5116 DD19            15          add     IX, DE
001118 5118 DD7E00          19          ld      A, (IX+0)
00111B 511B 77               7          ld      (HL), A
00111C 511C 23               6          inc     HL
00111D 511D C9              10          ret
       511E                         .chars
00111E 511E 3031323334353637            db      "0123456789ABCDEF"
            3839414243444546    
                                
                                ; =====================================
                                ;キーボードバッファからキーコードを取得する
                                ; =====================================
                                ; B_CHGET(009FH)を使用しないので、入力待ちを行いません
                                ; バッファにキーコードがない場合、z=ONで返る。
                                ; キーコードが取得できた場合、A=キーコード、z=offとなります
                                ; *変更レジスタ AF
       512E                     GET_CHAR:
       009C                             B_CHSNS     equ 0x009C      ;; use AF
       0020                             B_DCOMPR    equ 0x0020      ;; use AF
       F3FA                             W_GETPNT    equ 0xF3FA
       FBF0                             W_KEYBUF    equ 0xFBF0
       FC18                             D_BUFEND    equ 0xFC18
       512E                         .start
00112E 512E CD9C00          17          call    B_CHSNS         ;;空なら即終了
001131 5131 C8              11          ret     z
                                        ;
001132 5132 E5              11          push    HL
001133 5133 2AFAF3          16          ld      HL, (W_GETPNT)
001136 5136 7E               7          ld      A, (HL)
001137 5137 F5              11          push    AF
001138 5138 23               6          inc     HL
001139 5139 D5              11          push    DE
00113A 513A 1118FC          10          ld      DE, D_BUFEND
00113D 513D CD2000          17          call    B_DCOMPR
001140 5140 D1              10          pop     DE
001141 5141 2003            12          jr      nz, .step1
001143 5143 21F0FB          10          ld      HL, W_KEYBUF    ;;ポインタを先頭に戻す
       5146                         .step1
001146 5146 22FAF3          16          ld      (W_GETPNT), HL
001149 5149 F1              10          pop     AF
00114A 514A E1              10          pop     HL
00114B 514B C9              10          ret
                                
                                
                                ; =====================================
                                ; PICO側へSFカードファイルのファイルリストの更新を要求する
                                ; =====================================
       514C                     UPDATE_SYSTEM_INFO:
       514C                         .start
00114C 514C 3E01             7          ld      A, IFCMD.UPDATE_INFO
00114E 514E CD8044          17          call    FUNC_CMD_TO_CTARK
001151 5151 C9              10          ret
                                
                                ; =====================================
                                ; PICO側へSFカードファイルのファイルリストの更新を要求する
                                ; =====================================
       5152                     UPDATE_SDCARD_FILES:
       5152                         .start
001152 5152 3E02             7          ld      A, IFCMD.UPDATE_FILELIST
001154 5154 CD8044          17          call    FUNC_CMD_TO_CTARK
001157 5157 2A295F          16          ld      HL, (MSXPICO_IF_UPDATE_FILELIST.total_num_files)
00115A 515A 22155E          16          ld      (WA_FILES.total_files), HL
00115D 515D C9              10          ret
                                
       515E                     CHECK_EMPTY_FILES:
       515E                         .start
00115E 515E E5              11          push    HL
00115F 515F 2A155E          16          ld      HL, (WA_FILES.total_files)
001162 5162 7C               4          ld      A, H
001163 5163 B5               4          or      L
001164 5164 E1              10          pop     HL
001165 5165 C9              10          ret         ; no files = z=on
                                
                                ; =====================================
                                ; ファイルリストの表示（一列目から表示）
                                ; =====================================
       5166                     CTXT_PRINT_SDCARD_FILES:
       5166                         .start
001166 5166 2A155E          16          ld      HL, (WA_FILES.total_files)
001169 5169 7C               4          ld      A, H
00116A 516A B5               4          or      L
00116B 516B 2811            12          jr      z, .print_nosdcard
00116D 516D 2A175E          16          ld      HL, (WA_FILES.disp_top_fno)
001170 5170 22285F          16          ld      (MSXPICO_IF_REQ_FILELIST.req_topno), HL
001173 5173 3E03             7          ld      A, IFCMD.REQ_FILELIST       ; don't care reg.B.
001175 5175 CD8044          17          call    FUNC_CMD_TO_CTARK
001178 5178 3A2A5F          13          ld      A, (MSXPICO_IF_REQ_FILELIST.status)
00117B 517B B7               4          or      A
00117C 517C 2040            12          jr      nz, .print_files
       517E                         .print_nosdcard
                                        ; 「SDカードにアクセスできない」メッセージの表示
00117E 517E 218651          10          ld      HL, .nosdcard_mess
001181 5181 CD1541          17          call    CTXTF.go_scr
001184 5184 1878            12          jr      .finish
       5186                         .nosdcard_mess
001186 5186 020A06436F756C64            db  CTXT.prints, 10,6, "Could not access SD-card,", 0x00
            206E6F7420616363    
            6573732053442D63    
            6172642C00          
0011A3 51A3 206F72204E6F2066            db                     " or No files in SD-card.", 0x00, CTXT.EOT
            696C657320696E20    
            53442D636172642E    
            00FF                
0011BD 51BD 00                          db  CTXT.endc
                                
       51BE                         .print_files
0011BE 51BE 212D5F          10          ld      HL, MSXPICO_IF_REQ_FILELIST.files
0011C1 51C1 22125E          16          ld      (WA_FILES.ptr),HL           ; 読み出し先頭ポインタ
0011C4 51C4 3E01             7          ld      A, 1                ; 最初のX座標
0011C6 51C6 32115E          13          ld      (WA_FILES.file_x),A
0011C9 51C9 0603             7          ld      B, 3                ; 3 列
       51CB                         .colum
0011CB 51CB C5              11          push    BC
0011CC 51CC 3E02             7          ld      A, 2                ; 最初のY座標
0011CE 51CE 32105E          13          ld      (WA_FILES.file_y),A
0011D1 51D1 0612             7          ld      B, 18               ; 18 行
       51D3                         .low
0011D3 51D3 C5              11          push    BC
                                        ; 表示位置
0011D4 51D4 2A105E          16          ld      HL, (WA_FILES.file_xy)
0011D7 51D7 2C               4          inc     L
0011D8 51D8 22105E          16          ld      (WA_FILES.file_xy), HL
0011DB 51DB 54               4          ld      D, H
0011DC 51DC 5D               4          ld      E, L
                                        ; 1件ファイル名を表示
0011DD 51DD 2A125E          16          ld      HL, (WA_FILES.ptr)
0011E0 51E0 E5              11          push    HL
0011E1 51E1 010300          10          ld      BC, 3               ; MSXPICOIF_FILERECORD　内のname[]のへのオフセット
0011E4 51E4 09              11          add     HL, BC
0011E5 51E5 CD4A40          17          call    CTXTF.buff_print
0011E8 51E8 E1              10          pop     HL
                                        ; 次の1件へポインタを進める
0011E9 51E9 011200          10          ld      BC, SIZE_FILERECORD ; 1件分領域のサイズ
0011EC 51EC 09              11          add     HL, BC
0011ED 51ED 22125E          16          ld      (WA_FILES.ptr), HL
0011F0 51F0 C1              10          pop     BC
0011F1 51F1 10E0            13          djnz    .low
                                        ; 次の列へ
0011F3 51F3 3A115E          13          ld      A, (WA_FILES.file_x)
0011F6 51F6 C60D             7          add     A, 13               ; X方向の1件の表示幅
0011F8 51F8 32115E          13          ld      (WA_FILES.file_x), A
0011FB 51FB C1              10          pop     BC
0011FC 51FC 10CD            13          djnz    .colum
       51FE                         .finish
0011FE 51FE C9              10          ret
                                
                                
                                
                                ; ===========================================
                                ; ファイル名に使用できる文字かをチェックする
                                ; ==========================================
                                ; @param A = char
                                ; @return if z=on, OK.
                                ; @usereg BC, HL, F
       51FF                     CHK_FILESPEC_CHAR:
       51FF                         .chk_etc
0011FF 51FF 014C00          10          ld      BC, 76
001202 5202 210852          10          ld      HL, .enabled_chars
001205 5205 EDB1                        cpir
001207 5207 C9              10          ret
       5208                         .enabled_chars
001208 5208 2426234021252728            db  "$&#@!%'()-{}~_"                ; 14
            292D7B7D7E5F        
001216 5216 3031323334353637            db  "0123456789"                    ; 10
            3839                
001220 5220 6162636465666768            db  "abcdefghijklmnopqrstuvwxyz"    ; 26
            696A6B6C6D6E6F70    
            7172737475767778    
            797A                
00123A 523A 4142434445464748            db  "ABCDEFGHIJKLMNOPQRSTUVWXYZ"    ; 26
            494A4B4C4D4E4F50    
            5152535455565758    
            595A                
                                        ; ひらがな カタカナ は使えません。
                                
                                ; ===========================================
                                ; 選択メニュー, RETERN:決定、ESC:キャンセル
                                ; ==========================================
       5254                     VSELECT:
                                ; @param DE locate
                                ; @param B number of items
                                ; @param A start sel_no 1-
                                ; @return A select no 0/1~
       5254                         .init
001254 5254 ED53325E        20          ld      (WA_VSELECT.home_xy), DE    ; x,y
001258 5258 3D               4          dec     A
001259 5259 32355E          13          ld      (WA_VSELECT.sel_no), A
00125C 525C 57               4          ld      D, A
00125D 525D 05               4          dec     B
00125E 525E 78               4          ld      A, B
00125F 525F 32345E          13          ld      (WA_VSELECT.max_no), A
001262 5262 7A               4          ld      A, D
001263 5263 0E21             7          ld      C, CURSOR_CHAR
001265 5265 CDD152          17          call    .print_cur              ; 初期位置に選択カーソルを表示
001268 5268 CDCD40          17          call    CTXTF.buff_present
00126B 526B CD5601          17          call    B_KILBUF
       526E                         .wait_key
00126E 526E CD2E51          17          call    GET_CHAR                ; キー入力 -. A
001271 5271 28FB            12          jr      z, .wait_key
       5273                         .chk_up
001273 5273 FE1E             7          cp      KEY_UP
001275 5275 200D            12          jr      nz, .chk_down
001277 5277 3A355E          13          ld      A, (WA_VSELECT.sel_no)
00127A 527A B7               4          or      A
00127B 527B 2832            12          jr      z, .loop_end            ;; 先頭位置なら何もしない
00127D 527D 3EFF             7          ld      A, 0xff                 ; -1
00127F 527F CDB652          17          call    .update_cur_pos
001282 5282 182B            12          jr      .loop_end
       5284                         .chk_down
001284 5284 FE1F             7          cp      KEY_DOWN
001286 5286 2010            12          jr      nz, .chk_ret
001288 5288 3A355E          13          ld      A, (WA_VSELECT.sel_no)
00128B 528B 21345E          10          ld      HL, WA_VSELECT.max_no
00128E 528E BE               7          cp      (HL)
00128F 528F 281E            12          jr      z, .loop_end            ;; 末尾位置なら何もしない
001291 5291 3E01             7          ld      A, 0x01                 ; +1
001293 5293 CDB652          17          call    .update_cur_pos
001296 5296 1817            12          jr      .loop_end
       5298                         .chk_ret
001298 5298 FE0D             7          cp      KEY_RETURN
00129A 529A 2009            12          jr      nz, .chk_esc
00129C 529C 3A355E          13          ld      A, (WA_VSELECT.sel_no)
00129F 529F 3C               4          inc     A
0012A0 52A0 32355E          13          ld      (WA_VSELECT.sel_no), A
0012A3 52A3 180D            12          jr      .menu_end
       52A5                         .chk_esc
0012A5 52A5 FE1B             7          cp      KEY_ESC
0012A7 52A7 2006            12          jr      nz, .loop_end
0012A9 52A9 AF               4          xor     A
0012AA 52AA 32355E          13          ld      (WA_VSELECT.sel_no), A
0012AD 52AD 1803            12          jr      .menu_end
       52AF                         .loop_end
0012AF 52AF C36E52          10          jp      .wait_key
       52B2                         .menu_end
0012B2 52B2 3A355E          13          ld      A, (WA_VSELECT.sel_no)  ; 0/1～
0012B5 52B5 C9              10          ret
                                
       52B6                         .update_cur_pos
                                    ; A=step
0012B6 52B6 47               4          ld      B, A
0012B7 52B7 C5              11          push    BC
                                        ; 以前の位置のカーソルを消す
0012B8 52B8 3A355E          13          ld      A, (WA_VSELECT.sel_no)
0012BB 52BB 0E20             7          ld      C, BLANK_CHAR
0012BD 52BD CDD152          17          call    .print_cur
                                        ; 新しい位置にカーソル表示
0012C0 52C0 3A355E          13          ld      A, (WA_VSELECT.sel_no)
0012C3 52C3 C1              10          pop     BC
0012C4 52C4 80               4          add     A, B
0012C5 52C5 32355E          13          ld      (WA_VSELECT.sel_no), A
0012C8 52C8 0E21             7          ld      C, CURSOR_CHAR
0012CA 52CA CDD152          17          call    .print_cur
0012CD 52CD CDCD40          17          call    CTXTF.buff_present
0012D0 52D0 C9              10          ret
                                
       52D1                         .print_cur
                                    ; A=sele_no
                                    ; C=char
                                    ; usereg DE, HL, A, C
0012D1 52D1 ED5B325E        20          ld      DE, (WA_VSELECT.home_xy)
0012D5 52D5 83               4          add     A, E
0012D6 52D6 5F               4          ld      E, A
0012D7 52D7 79               4          ld      A, C
0012D8 52D8 CD5C40          17          call    CTXTF.buff_put_char
0012DB 52DB C9              10          ret
                                
                                ; ===========================================
                                ; 16K単位のROM ERASE（ページ0～2専用）
                                ; ==========================================
                                ; @param reg.A ページ番号 0～2
       52DC                     ROMERASEPAGE:
       52DC                         .start
0012DC 52DC 07               4          rlca
0012DD 52DD 07               4          rlca
0012DE 52DE 4F               4          ld      C, A
0012DF 52DF 0604             7          ld      B, 4    ; 4*4KB = 16KB = 1Page
       52E1                         .loop1
0012E1 52E1 C5              11          push    BC
0012E2 52E2 78               4          ld      A, B
0012E3 52E3 3D               4          dec     A
0012E4 52E4 B1               4          or      C
0012E5 52E5 07               4          rlca
0012E6 52E6 07               4          rlca
0012E7 52E7 07               4          rlca
0012E8 52E8 07               4          rlca
0012E9 52E9 67               4          ld      H, A
0012EA 52EA CD8154          17          call    SST39SF010A_SECTORERASE     ; FlashROMの0000-FFFFFの内容を消去する
0012ED 52ED C1              10          pop     BC
0012EE 52EE 10F1            13          djnz    .loop1
0012F0 52F0 C9              10          ret
                                
                                ; ===========================================
                                ; 16K単位のROM ERASE(ページ3専用版)
                                ; ==========================================
       52F1                     ROMERASEPAGE_P3:
       52F1                         .start
0012F1 52F1 0E0C             7          ld      C, 0x0c
0012F3 52F3 0604             7          ld      B, 4    ; 4*4KB = 16KB = 1Page
       52F5                         .loop1
0012F5 52F5 C5              11          push    BC
0012F6 52F6 78               4          ld      A, B
0012F7 52F7 3D               4          dec     A
0012F8 52F8 B1               4          or      C
0012F9 52F9 07               4          rlca
0012FA 52FA 07               4          rlca
0012FB 52FB 07               4          rlca
0012FC 52FC 07               4          rlca
0012FD 52FD 67               4          ld      H, A
0012FE 52FE CDA454          17          call    SST39SF010A_SECTORERASE_P3
001301 5301 C1              10          pop     BC
001302 5302 10F1            13          djnz    .loop1
001304 5304 C9              10          ret
                                
                                
                                ;================================================================================================
                                ; ツール類（先頭位置を特定できないので、プログラムの最後でインクルードしておく）
                                ;================================================================================================
                                include "tools.z80"
                                ;・掛け算
                                ; from http://hp.vector.co.jp/authors/VA054130/%EF%BC%BA%EF%BC%98%EF%BC%90%E3%81%AE%E4%B9%97%E9%99%A4%E7%AE%97.txt
                                ; ８ビット×８ビット＝８ビット以内
                                ; 8bit By 8bit = 8bit multiplication
                                ; B=multiplicand, C=multiplier -> A=result
       5305                     MULTI8:
       5305                         .start
001305 5305 AF               4          xor A
       5306                         .@1
001306 5306 0C               4          inc C
001307 5307 0D               4          dec C
001308 5308 C8              11          ret Z
001309 5309 CB39             8          srl C
00130B 530B 3001            12          jr  NC, .noadd
00130D 530D 80               4          add A,B
       530E                         .noadd
00130E 530E CB20             8          sla B
001310 5310 18F4            12          jr  .@1
001312 5312 C9              10          ret
                                
                                ;８ビット×８ビット＝１６ビット　その１
                                ; 8bit By 8bit = 16bit multiplication
                                ; A=multiplicand, E=multiplier -> HL=result
       5313                     MULTI8X8R16:
       5313                         .start
001313 5313 1600             7          ld  D, 0
001315 5315 210000          10          ld  HL, 0
001318 5318 0608             7          ld  B, 8    ; counter
       531A                         .@1
00131A 531A 0F               4          rrca
00131B 531B 3001            12          jr  nc, .noadd
00131D 531D 19              11          add HL,DE
       531E                         .noadd
00131E 531E CB23             8          sla E
001320 5320 CB12             8          rl  D
001322 5322 10F6            13          djnz .@1
001324 5324 C9              10          ret
                                
                                ;・割り算
                                ;８ビット÷８ビット　結果と余り
                                ; 8bit / 8bit division
                                ; A=dividend, B=divisor -> C=result, A=remainder
       5325                     DIV8R:
       5325                         .@1
001325 5325 90               4          sub B
001326 5326 3803            12          jr  c, .remain
001328 5328 0C               4          inc C
001329 5329 18FA            12          jr  .@1
       532B                         .remain
00132B 532B 80               4          add A, B
00132C 532C C9              10          ret
                                
                                
                                
                                ; refer to MSX-Datapack "WHEREAMI.MAC"
                                ; @param reg.A = target PageNo(only 1 or 2)
                                ; @return reg.A = SlotNo infomation of PageNo
                                ;
                                ; Aレジスタにページ番号を入れる（1 or 2）と、そのページに現れているスロットの番号を返す
                                ;このスロット番号は、RDSLT と同じ形式
       0138                     B_RSLREG    equ 0x0138      ; 0-3ページすべての基本スロット番号を返す
       FCC1                     W_EXPTBL    equ 0xfcc1      ; 各スロットの拡張の有無を示すフラグテーブルの先頭アドレス
       FCC5                     W_SLTTBL    equ 0xFCC5      ; 拡張スロットの現在の選択状態を保持するミラー (4バイト)
                                
       532D                     WHEREPAGE:
       532D                         .start
00132D 532D 5F               4          ld      E, A
00132E 532E 47               4          ld      B, A
00132F 532F CD3801          17          call    B_RSLREG
       5332                         .@1
001332 5332 0F               4          rrca                    ; A <= {A[0], A[7:1]}, cf <= A[0]
001333 5333 0F               4          rrca
001334 5334 10FC            13          djnz    .@1
001336 5336 E603             7          and     0x03
001338 5338 4F               4          ld      C, A            ; C には、reg.A で指定していたページ番号の基本スロット番号(0-3)が入る
                                    ;
001339 5339 0600             7          ld      B, 0
00133B 533B 21C1FC          10          ld      HL, W_EXPTBL
00133E 533E 09              11          add     HL, BC
00133F 533F 7E               7          ld      A, (HL)         ; 
001340 5340 E680             7          and     0x80
001342 5342 B1               4          or      C
001343 5343 4F               4          ld      C, A            ; C <= {拡張有無, 3'b000, 基本スロット番号(0-3)}
                                        ;
001344 5344 23               6          inc     HL
001345 5345 23               6          inc     HL
001346 5346 23               6          inc     HL
001347 5347 23               6          inc     HL              ; HLには、対象スロットの、拡張スロット選択レジスタ値の保存エリアへのアドレス
001348 5348 7B               4          ld      A, E            ; A <= reg.A
001349 5349 3D               4          dec     A
00134A 534A 7E               7          ld      A, (HL)         ; reg.A=page1だったのなら、保存エリアの値をそのまま使用する
00134B 534B 2802            12          jr      z, .finish      ; reg.A=page2だったのなら、A <<= 2;
00134D 534D 07               4          rlca
00134E 534E 07               4          rlca
       534F                         .finish
00134F 534F E60C             7          and     0x0c
001351 5351 B1               4          or      C               ; A = {拡張有無、3'b000, 拡張スロット番号(0-3), 基本スロット番号(0-3)}
001352 5352 C9              10          ret
                                
                                ; HL = HL - DE
       5353                     SUB_HL_DE:
       5353                         .start
001353 5353 7D               4          ld      A,L        ; 下位バイト
001354 5354 93               4          sub     E          ; A = L - E
001355 5355 6F               4          ld      L,A
001356 5356 7C               4          ld      A,H        ; 上位バイト
001357 5357 9A               4          sbc     A,D        ; A = H - D - キャリー
001358 5358 67               4          ld      H,A
001359 5359 C9              10          ret
                                
                                
                                
                                ; Generated by Gemini.
                                ; =====================================================================
                                ; サブルーチン: WR_SLT2_P3
                                ; 引数: 
                                ;   HL = 書き込み先アドレス (0xC000-0xFFFF)
                                ;   A  = 書き込みデータ
                                ; 前提条件:
                                ;   - このルーチンおよびスタックはページ3以外（ページ0〜2）にあること
                                ;   - 割り込みは必要に応じて呼び出し側で禁止(DI)しておくことを推奨
                                ; =====================================================================
       535A                     WR_SLT2_P3:
       535A                         .start
00135A 535A C5              11          push    BC
00135B 535B D5              11          push    DE
00135C 535C F5              11          push    AF
                                
00135D 535D 3AC3FC          13          ld      A, (W_EXPTBL+2) 
001360 5360 321554          13          ld      (WA_SLT2_P3.local_W_EXPTBL2), A
001363 5363 3AC7FC          13          ld      A, (W_SLTTBL+2) 
001366 5366 321654          13          ld      (WA_SLT2_P3.local_W_SLTTBL2), A
                                
                                        ; -----------------------------------------------------------------
                                        ; 1. 現在のページ3のスロット状態（基本・拡張）を保存する
                                        ; -----------------------------------------------------------------
001369 5369 DBA8            11          in      A, (0xA8)       ; 基本スロットレジスタ読み込み
00136B 536B 47               4          ld      B, A
                                
                                        ; 現在ページ3に選択されている基本スロット番号を割り出す (ビット7-6)
00136C 536C 07               4          rlca
00136D 536D 07               4          rlca
00136E 536E E603             7          and     0x03            ; A = 現在のページ3の基本スロット番号 (0〜3)
001370 5370 5F               4          ld      E, A
001371 5371 1600             7          ld      D, 0
001373 5373 FD21C1FC        14          ld      IY, W_EXPTBL
001377 5377 FD19            15          add     IY, DE          ; IY = W_EXPTBL + 基本スロット番号
001379 5379 FD4E00          19          ld      C, (IY+0)       ; C = 元の基本スロットが拡張されているかのフラグ (MSBが1なら拡張)
                                
00137C 537C 79               4          ld      A, C
00137D 537D 07               4          rlca                        ; 拡張フラグをCyフラグへ
00137E 537E 300A            12          jr      nc, .skip_save_sub  ; スロットが拡張されていなければ、拡張ミラーの保存はスキップ
                                        ; 現在のページ3が拡張スロットだった場合、現在の拡張スロットレジスタの内容を保存
001380 5380 FD21C5FC        14          ld      IY, W_SLTTBL
001384 5384 FD19            15          add     IY, DE              ; IY = W_SLTTBL + 基本スロット番号
001386 5386 FD7E00          19          ld      A, (IY+0)           ; 
001389 5389 57               4          ld      D, A                ; Dレジスタに切り替え前の拡張スロット状態を保存
                                
       538A                         .skip_save_sub
                                        ; この時点で、切替前の、
                                        ; Bレジスタ = 基本スロットレジスタの値
                                        ; Cレジスタ = 基本スロットの拡張フラグ
                                        ; Dレジスタ = 拡張スロットミラーの値 (拡張の場合のみ有効)
                                
                                        ; -----------------------------------------------------------------
                                        ; 2. ページ3を「スロット2」に切り替える
                                        ; -----------------------------------------------------------------
                                        ; ページ3（ビット7-6）に、基本スロット2を割り当てる
00138A 538A 78               4          ld      A, B
00138B 538B E63F             7          and     0x3F                ; ページ3のビット(7-6)をクリアし、
00138D 538D F680             7          or      0x80                ; ページ3にスロット2を指定する (10_00_00_00B)
00138F 538F D3A8            11          out     (0xA8), A           ; 基本スロット切り替え実行
                                
                                        ; スロット2が拡張スロットかどうかを W_EXPTBL から確認
001391 5391 3A1554          13          ld      A, (WA_SLT2_P3.local_W_EXPTBL2) ; スロット2の拡張フラグを取得
001394 5394 E680             7          and     0x80                    ; 拡張スロットか？
001396 5396 280A            12          jr      z, .write_data          ; 拡張されていなければ、そのまま書き込みへ
                                
001398 5398 3A1654          13          ld      A, (WA_SLT2_P3.local_W_SLTTBL2) ; スロット2の現在の拡張スロット状態を取得
00139B 539B E63F             7          and     0x3F                    ; ページ3のサブスロット指定(ビット7-6)をクリア
00139D 539D F600             7          or      0x00                    ; ここでページ3のサブスロットをしていするが、今は、0 とする
                                
00139F 539F 32FFFF          13          ld      (0xFFFF), A         ; 拡張スロットレジスタ(0xFFFF)に書き込み
                                
                                        ; -----------------------------------------------------------------
                                        ; 3. データの書き込み
                                        ; -----------------------------------------------------------------
       53A2                         .write_data
0013A2 53A2 F1              10          pop     AF             ; 退避していた書き込みデータを復帰
0013A3 53A3 77               7          ld      (HL), A        ; ターゲットアドレスに1バイト書き込み
                                
                                        ; -----------------------------------------------------------------
                                        ; 4. スロット状態を元に戻す (W_EXPTBL, W_SLTTBL の情報をリスペクト)
                                        ; -----------------------------------------------------------------
                                
                                        ; 基本スロットを一時的に「元のスロット」に戻さないと、
                                        ; 元の拡張スロットレジスタ(0xFFFF)にアクセスできないため、先に基本を戻す
0013A4 53A4 78               4          ld      A, B
0013A5 53A5 D3A8            11          out     (0xA8), A
                                        ;
0013A7 53A7 79               4          ld      A, C
0013A8 53A8 07               4          rlca                    ; 元のスロットが拡張だったかチェック
0013A9 53A9 3006            12          jr      nc, .finish
                                        ; 元の拡張スロットレジスタの値を書き戻す
0013AB 53AB 7A               4          ld      A, D
0013AC 53AC 32FFFF          13          ld      (0xFFFF), A
0013AF 53AF 1800            12          jr      .finish
       53B1                         .finish
0013B1 53B1 D1              10          pop     DE      ; レジスタの復帰
0013B2 53B2 C1              10          pop     BC
0013B3 53B3 C9              10          ret
                                
                                ; =====================================================================
                                ; サブルーチン: RD_SLT2_P3
                                ; 引数: 
                                ;   HL = 読み込み元アドレス (0xC000 〜 0xFFFF)
                                ; 戻り値:
                                ;   A  = 読み込んだデータ
                                ; 前提条件:
                                ;   - このルーチンおよびスタックはページ3以外（ページ0〜2）にあること
                                ;   - 割り込みは必要に応じて呼び出し側で禁止(DI)しておくことを推奨
                                ; =====================================================================
       53B4                     RD_SLT2_P3:
0013B4 53B4 C5              11          push    BC
0013B5 53B5 D5              11          push    DE
                                        ;
0013B6 53B6 3AC3FC          13          ld      A, (W_EXPTBL+2) 
0013B9 53B9 321554          13          ld      (WA_SLT2_P3.local_W_EXPTBL2), A
0013BC 53BC 3AC7FC          13          ld      A, (W_SLTTBL+2) 
0013BF 53BF 321654          13          ld      (WA_SLT2_P3.local_W_SLTTBL2), A
                                
                                        ; -----------------------------------------------------------------
                                        ; 1. 現在のページ3のスロット状態（基本・拡張）を保存する
                                        ; -----------------------------------------------------------------
0013C2 53C2 DBA8            11          in      A, (0xA8)       ; 基本スロットレジスタ読み込み
0013C4 53C4 47               4          ld      B, A            ; Bレジスタに元の基本スロット状態を保存
                                
                                        ; 現在ページ3に選択されている基本スロット番号を割り出す (ビット7-6)
0013C5 53C5 07               4          rlca
0013C6 53C6 07               4          rlca
0013C7 53C7 E603             7          and     0x03            ; A = 現在のページ3の基本スロット番号 (0〜3)
0013C9 53C9 5F               4          ld      E, A
0013CA 53CA 1600             7          ld      D, 0
0013CC 53CC FD21C1FC        14          ld      IY, W_EXPTBL
0013D0 53D0 FD19            15          add     IY, DE          ; IY = W_EXPTBL + 基本スロット番号
0013D2 53D2 FD4E00          19          ld      C, (IY+0)       ; C = 元の基本スロットが拡張されているかのフラグ (MSBが1なら拡張)
                                        ;
0013D5 53D5 79               4          ld      A, C
0013D6 53D6 07               4          rlca                        ; 拡張フラグをサインフラグへ
0013D7 53D7 300A            12          jr      nc, .skip_save_sub  ; 拡張スロットでなければ、拡張ミラーの保存はスキップ
                                
                                        ; 元のページ3が拡張スロットだった場合、現在の拡張スロットレジスタの内容を保存
0013D9 53D9 FD21C5FC        14          ld      IY, W_SLTTBL
0013DD 53DD FD19            15          add     IY, DE              ; IY = W_SLTTBL + 基本スロット番号
0013DF 53DF FD7E00          19          ld      A, (IY+0)           ; A = 元の拡張スロットミラーの値
0013E2 53E2 57               4          ld      D, A                ; Dレジスタに元の拡張スロット状態を保存
                                
       53E3                     .skip_save_sub
                                        ; この時点で、切替前の、
                                        ; Bレジスタ = 基本スロットレジスタの値
                                        ; Cレジスタ = 基本スロットの拡張フラグ
                                        ; Dレジスタ = 拡張スロットミラーの値 (拡張の場合のみ有効)
                                
                                        ; -----------------------------------------------------------------
                                        ; 2. ページ3を「スロット2」に切り替える
                                        ; -----------------------------------------------------------------
                                        ; 基本スロット2をページ3（ビット7-6）に選択する
0013E3 53E3 78               4          ld      A, B
0013E4 53E4 E63F             7          and     0x3F                ; ページ3のビット(7-6)をクリア
0013E6 53E6 F680             7          or      0x80                ; ページ3にスロット2を指定 (10000000B)
0013E8 53E8 D3A8            11          out     (0xA8), A           ; 基本スロット切り替え実行
                                
                                        ; スロット2が拡張スロットかどうかを W_EXPTBL から確認
0013EA 53EA 3AC3FC          13          ld      A, (W_EXPTBL+2)     ; スロット2の拡張フラグを取得
0013ED 53ED E680             7          and     0x80                ; 拡張スロットか？
0013EF 53EF 2811            12          jr      z, .read_data       ; 拡張されていなければ、そのまま読み込みへ
                                
                                        ; スロット2が拡張スロットの場合、拡張スロットレジスタ(0xFFFF)を操作
0013F1 53F1 3AC7FC          13          ld      A, (W_SLTTBL+2)     ; スロット2の現在の拡張スロット状態を取得
0013F4 53F4 E63F             7          and     0x3F                ; ページ3のサブスロット指定(ビット7-6)をクリア
                                
0013F6 53F6 5F               4          ld      E, A
0013F7 53F7 3AC3FC          13          ld      A, (W_EXPTBL+2)
0013FA 53FA E603             7          and     0x03                ; EXPTBLの下位2bitを取得
0013FC 53FC 0F               4          rrca
0013FD 53FD 0F               4          rrca                        ; ビット7-6へ移動
0013FE 53FE B3               4          or      E                   ; 合成
                                        ;
0013FF 53FF 32FFFF          13          ld      (0xFFFF), A         ; 拡張スロットレジスタ(0xFFFF)に書き込み
                                
                                        ; -----------------------------------------------------------------
                                        ; 3. データの読み込み
                                        ; -----------------------------------------------------------------
       5402                         .read_data
001402 5402 7E               7          ld      A, (HL)             ; ターゲットアドレスから1バイト読み込み (Aレジスタに格納)
001403 5403 5F               4          ld      E, A                ; 読み込んだ値を一時的にEレジスタに退避
                                
                                        ; -----------------------------------------------------------------
                                        ; 4. スロット状態を元に戻す (W_EXPTBL, W_SLTTBL の情報をリスペクト)
                                        ; -----------------------------------------------------------------
                                        ; 基本スロットを一時的に「元のスロット」に戻さないと、
                                        ; 元の拡張スロットレジスタ(0xFFFF)にアクセスできないため、先に基本を戻す
001404 5404 78               4          ld      A, B
001405 5405 D3A8            11          out     (0xA8), A
                                
                                        ; 拡張スロットだった場合、まず拡張スロットレジスタを元に戻す
001407 5407 79               4          ld      A, C
001408 5408 07               4          rlca                        ; 元のスロットが拡張だったかチェック
001409 5409 3006            12          jr      nc, .finish
                                
                                        ; 元の拡張スロットレジスタの値を書き戻す
00140B 540B 7A               4          ld      A, D
00140C 540C 32FFFF          13          ld      (0xFFFF), A
00140F 540F 1800            12          jr      .finish
                                
       5411                         .finish
001411 5411 7B               4          ld      A, E           ; 退避していた読み込みデータを A レジスタに戻す
001412 5412 D1              10          pop     DE             ; レジスタの復帰
001413 5413 C1              10          pop     BC
001414 5414 C9              10          ret
                                
                                ;----------------------------------------------------------------------
       5415                     WA_SLT2_P3:
       5415                         .local_W_EXPTBL2
001415 5415 01                          db      1
       5416                         .local_W_SLTTBL2
001416 5416 01                          db      1
[EOF:tools.z80:UTF_8]
                                include "flashrom.z80"
                                ; MSX用カートリッジ64K Simple ROM Cartridge 
                                ; SST39SF010A
                                ; https://github.com/v9938/MSX_SimpleCartridge
                                ; https://www.kadenken.com/view/item/000000001288
                                
                                ; B_RDSLT               equ 0x000C
                                ; B_WRSLT               equ 0x0014
                                ; W_JIFFY               equ 0xFC9E
                                
                                ;====================================================
                                ; Reset FlashROM
                                ;====================================================
       5417                     SST39SF010A_1ST2ND_CYCLE:
       5417                         .start
001417 5417 3E02             7          ld      A, 0x02     ; slot-2
001419 5419 215555          10          ld      HL, 0x5555
00141C 541C 1EAA             7          ld      E, 0xaa
00141E 541E CD1400          17          call    B_WRSLT
                                        ;
001421 5421 3E02             7          ld      A, 0x02
001423 5423 21AA2A          10          ld      HL, 0x2aaa
001426 5426 1E55             7          ld      E, 0x55
001428 5428 CD1400          17          call    B_WRSLT
                                        ;
00142B 542B C9              10          ret
                                
                                ;====================================================
                                ; Check FlashROM
                                ;====================================================
       542C                     SST39SF010A_CHECK:
                                    ; @return H=MakerID,L=DeviceID
       542C                         .start
00142C 542C F3               4          di
                                        ;
00142D 542D CD1754          17          call    SST39SF010A_1ST2ND_CYCLE
001430 5430 3E02             7          ld      A, 0x02
001432 5432 215555          10          ld      HL, 0x5555
001435 5435 1E90             7          ld      E, 0x90
001437 5437 CD1400          17          call    B_WRSLT
                                        ;
00143A 543A 3E02             7          ld      A, 0x02
00143C 543C 210040          10          ld      HL, 0x4000
00143F 543F CD0C00          17          call    B_RDSLT
001442 5442 F5              11          push    AF
001443 5443 3E02             7          ld      A, 0x02
001445 5445 210140          10          ld      HL, 0x4001
001448 5448 CD0C00          17          call    B_RDSLT
00144B 544B 6F               4          ld      L, A
00144C 544C F1              10          pop     AF
00144D 544D 67               4          ld      H, A
00144E 544E E5              11          push    HL
                                        ;
00144F 544F CD1754          17          call    SST39SF010A_1ST2ND_CYCLE
001452 5452 3E02             7          ld      A, 0x02
001454 5454 215555          10          ld      HL, 0x5555
001457 5457 1EF0             7          ld      E, 0xF0
001459 5459 CD1400          17          call    B_WRSLT
                                        ;
00145C 545C FB               4          ei
00145D 545D E1              10          pop     HL
00145E 545E C9              10          ret
                                
                                ;====================================================
                                ; Erase FlashROM contents(Chip Earse)
                                ;====================================================
       545F                     SST39SF010A_CHIPERASE:
       545F                         .start
00145F 545F F3               4          di
                                        ;
001460 5460 CD1754          17          call    SST39SF010A_1ST2ND_CYCLE
                                        ;
001463 5463 3E02             7          ld      A, 0x02
001465 5465 215555          10          ld      HL, 0x5555
001468 5468 1E80             7          ld      E, 0x80
00146A 546A CD1400          17          call    B_WRSLT
                                        ;
00146D 546D CD1754          17          call    SST39SF010A_1ST2ND_CYCLE
                                        ;
001470 5470 3E02             7          ld      A, 0x02
001472 5472 215555          10          ld      HL, 0x5555
001475 5475 1E10             7          ld      E, 0x10
001477 5477 CD1400          17          call    B_WRSLT
                                        ;
00147A 547A FB               4          ei
                                
                                    ; 約100ms 待つ!
00147B 547B 3E07             7          ld      A, 0x07     ;16.6ms x 7 = 116.2ms
00147D 547D CD3E55          17          call    SST39SF010A_WAIT_MS
001480 5480 C9              10          ret
                                
                                ;====================================================
                                ; Erase FlashROM contents(0000-FFFF)
                                ;====================================================
                                ; @param reg.H(ssss0000b: ssssb=sector number 0-11)
                                ;   12以降はBIOSの仕組み上不可能
       5481                     SST39SF010A_SECTORERASE:
       5481                         .start
001481 5481 F3               4          di
001482 5482 E5              11          push    HL
                                        ;
001483 5483 CD1754          17          call    SST39SF010A_1ST2ND_CYCLE
                                        ;
001486 5486 3E02             7          ld      A, 0x02
001488 5488 215555          10          ld      HL, 0x5555
00148B 548B 1E80             7          ld      E, 0x80
00148D 548D CD1400          17          call    B_WRSLT
                                        ;
001490 5490 CD1754          17          call    SST39SF010A_1ST2ND_CYCLE
                                        ;
001493 5493 E1              10          pop     HL          ; H(ssss0000b) セクタ番号
001494 5494 2E00             7          ld      L, 0
001496 5496 3E02             7          ld      A, 0x02
001498 5498 1E30             7          ld      E, 0x30
00149A 549A CD1400          17          call    B_WRSLT
                                        ;
00149D 549D FB               4          ei
                                    ; 約25ms 待つ!
00149E 549E 3E03             7          ld      A, 0x03     ;16.6ms x 3 = 49.5ms
0014A0 54A0 CD3E55          17          call    SST39SF010A_WAIT_MS
0014A3 54A3 C9              10          ret
                                
                                
       54A4                     SST39SF010A_SECTORERASE_P3:
       54A4                         .start
0014A4 54A4 F3               4          di
0014A5 54A5 E5              11          push    HL
                                        ;
0014A6 54A6 CD1754          17          call    SST39SF010A_1ST2ND_CYCLE
                                        ;
0014A9 54A9 3E02             7          ld      A, 0x02
0014AB 54AB 215555          10          ld      HL, 0x5555
0014AE 54AE 1E80             7          ld      E, 0x80
0014B0 54B0 CD1400          17          call    B_WRSLT
                                        ;
0014B3 54B3 CD1754          17          call    SST39SF010A_1ST2ND_CYCLE
                                        ;
0014B6 54B6 E1              10          pop     HL          ; H(ssss0000b) セクタ番号
0014B7 54B7 54               4          ld      D, H
                                
                                        ; page3の場合はスタックエリアを別の場所に移動する
0014B8 54B8 210000          10          ld      HL, 0
0014BB 54BB 39              11          add     HL, SP
0014BC 54BC 22CF59          16          ld      (LOCALSTACK.save), HL
0014BF 54BF 31FF59          10          ld      SP, LOCALSTACK.bottom
                                
                                        ; 書込み
0014C2 54C2 62               4          ld      H, D
0014C3 54C3 2E00             7          ld      L, 0
0014C5 54C5 3E30             7          ld      A, 0x30
0014C7 54C7 CD5A53          17          call    WR_SLT2_P3  ; slot2.[HL] <- A
                                
                                        ;スタック領域を本来の位置に戻す
0014CA 54CA 2ACF59          16          ld      HL, (LOCALSTACK.save)
0014CD 54CD F9               6          ld      SP, HL
                                        ;
0014CE 54CE FB               4          ei
                                    ; 約25ms 待つ!
0014CF 54CF 3E03             7          ld      A, 0x03     ;16.6ms x 3 = 49.5ms
0014D1 54D1 CD3E55          17          call    SST39SF010A_WAIT_MS
0014D4 54D4 C9              10          ret
                                
                                
                                ;====================================================
                                ; Write to FlashROM
                                ;====================================================
       54D5                     SST39SF010A_WRITE:
                                    ; @param HL:dest, E:value
       54D5                         .start
0014D5 54D5 F3               4          di
                                        ;
0014D6 54D6 E5              11          push    HL
0014D7 54D7 D5              11          push    DE
0014D8 54D8 CD1754          17          call    SST39SF010A_1ST2ND_CYCLE
0014DB 54DB 3E02             7          ld      A, 0x02
0014DD 54DD 215555          10          ld      HL, 0x5555
0014E0 54E0 1EA0             7          ld      E, 0xA0
0014E2 54E2 CD1400          17          call    B_WRSLT
0014E5 54E5 D1              10          pop     DE
0014E6 54E6 E1              10          pop     HL
                                        ;
0014E7 54E7 D5              11          push    DE
0014E8 54E8 3E02             7          ld      A, 0x02
0014EA 54EA CD1400          17          call    B_WRSLT
0014ED 54ED D1              10          pop     DE
                                        ;
       54EE                         .verify
0014EE 54EE D5              11          push    DE
0014EF 54EF 3E02             7          ld      A, 0x02
0014F1 54F1 CD0C00          17          call    B_RDSLT
0014F4 54F4 D1              10          pop     DE
0014F5 54F5 BB               4          cp      E
0014F6 54F6 20F6            12          jr      nz, .verify
                                        ;
0014F8 54F8 FB               4          ei
       54F9                         .end
0014F9 54F9 C9              10          ret
                                
       54FA                     SST39SF010A_WRITE_P3:
                                    ; @param HL:dest, E:value
       54FA                         .start
0014FA 54FA F3               4          di
0014FB 54FB 223A55          16          ld      (.workdw_hl), HL
0014FE 54FE ED533C55        20          ld      (.workdw_de), DE
001502 5502 CD1754          17          call    SST39SF010A_1ST2ND_CYCLE
001505 5505 3E02             7          ld      A, 0x02
001507 5507 215555          10          ld      HL, 0x5555
00150A 550A 1EA0             7          ld      E, 0xA0
00150C 550C CD1400          17          call    B_WRSLT
                                
       550F                         .write
                                        ; page3の場合はスタックエリアを別の場所に移動する
00150F 550F 210000          10          ld      HL, 0
001512 5512 39              11          add     HL, SP
001513 5513 22CF59          16          ld      (LOCALSTACK.save), HL
001516 5516 31FF59          10          ld      SP, LOCALSTACK.bottom
                                
                                        ;
001519 5519 ED5B3C55        20          ld      DE, (.workdw_de)
00151D 551D 7B               4          ld      A, E
00151E 551E 2A3A55          16          ld      HL, (.workdw_hl)
001521 5521 CD5A53          17          call    WR_SLT2_P3  ; slot2.[HL] <- A
                                
       5524                         .verify
                                        ;
001524 5524 2A3A55          16          ld      HL, (.workdw_hl)
001527 5527 CDB453          17          call    RD_SLT2_P3  ; A <- slot2.[HL]
                                        ;
00152A 552A ED5B3C55        20          ld      DE, (.workdw_de)
00152E 552E BB               4          cp      E
00152F 552F 20F3            12          jr      nz, .verify
                                
                                        ;スタック領域を本来の位置に戻す
001531 5531 2ACF59          16          ld      HL, (LOCALSTACK.save)
001534 5534 F9               6          ld      SP, HL
001535 5535 2A3A55          16          ld      HL, (.workdw_hl)
001538 5538 FB               4          ei
       5539                         .end
001539 5539 C9              10          ret
       553A                         .workdw_hl  
00153A 553A 0000                        dw      0
       553C                         .workdw_de
00153C 553C 0000                        dw      0
                                
                                
                                ;====================================================
                                ; Write to FlashROM
                                ;====================================================
       553E                     SST39SF010A_WAIT_MS:
                                ; @param @reg.A tick(1=16.6ms)
       553E                         .start
00153E 553E 219EFC          10          ld      HL, W_JIFFY
001541 5541 86               7          add     A, (HL)
       5542                         .@1
001542 5542 BE               7          cp      (HL)
001543 5543 20FD            12          jr      nz, .@1
001545 5545 C9              10          ret
[EOF:flashrom.z80:UTF_8]
                                
                                ;================================================================================================
                                ; 作業ワークエリア
                                ;================================================================================================
                                ; 0x4000-0x59EE 6639 Menu-program.
                                ; 0x59CF-0x59FF 48   Stack area
                                ; 0x5A00-0x5DFF 1024 CTXTB.buff
                                ; 0x5E00-0x5EFF 256 work-ram
                                ; 0x5F00-0x7FFF     Picoとの通信を行うためのエリアA
                                ;
0019CF 59CF                     org 0x59CF
       59CF                     LOCALSTACK:
0019CF 59CF                         .save       ds  2
0019D1 59D1                         .top        ds  46
       59FF                         .bottom
                                
001A00 5A00                     org 0x5A00
       5A00                     CTXTB:
001A00 5A00                         .buff       ds  960
001DC0 5DC0                         .work       ds  64
                                
001E00 5E00                     org 0x5E00
       5E00                     WA_FILES:
001E00 5E00                         .tmp_str        ds  15+1    ; 6+1,3+1+3+1+4+2+1
       5E10                         .file_xy
001E10 5E10                         .file_y         ds  1
001E11 5E11                         .file_x         ds  1
001E12 5E12                         .ptr            ds  2
001E14 5E14                         .sel_no         ds  1   ; 画面内のファイル選択の番号 1 ～ 3*18
001E15 5E15                         .total_files    ds  2   ; 総ファイル数 0~999
001E17 5E17                         .disp_top_fno   ds  2   ; 表示先頭ファイル番号 1～
                                
                                ; 選択ファイルのへのアクション
       5E19                     WA_ACTMENU:
001E19 5E19                         .func_ptr   ds  2
                                
                                ; FlashROM書き込みの問い合わせ
       5E1B                     WA_STOREROMQRY:
001E1B 5E1B                         .sel_no     ds  1
001E1C 5E1C                         .block_no   ds  1
001E1D 5E1D                         .read_ptr   ds  2
001E1F 5E1F                         .write_ptr  ds  2
001E21 5E21 0100                    .device     dw  1
                                
                                ; ファイル名称の入力
       5E23                     WA_FNAME:
       5E23                         .name       ds  8+1
       5E2C                         .len        ds  1   ; 文字長
                                
       5E2D                     WA_FWRPROG:
       5E2D                         .block_cnt  ds  1
       5E2E                         .read_ptr   ds  2
       5E30                         .write_ptr  ds  2
                                
       5E32                     WA_VSELECT:
       5E32                         .home_xy    ds  1*2 ; 選択肢の原点
       5E34                         .max_no     ds  1   ; アイテム数-1
       5E35                         .sel_no     ds  1   ; 0～
                                
                                
                                ;CT-ARK(Pico)との通信を行うためのエリアA
       5F00                     org 0x5F00
       5F00                     MSXPICO_IF:
                                    ; ここにこの文字列を書き込むとPico側がコマンドを受け付けるモードになる
                                    ; それまではタダのROMとして動作する
       5F00                         .magic_word         ds  12  ; "OPEN THE ARK"
                                
                                    ; Infomation
                                    ; idが書き込まれると、Pico側のVer文字列が格納される
       5F0C                         .pico_side_version  ds  5+1 ; "xx.xx" + \0
                                
                                    ; idが書き込まれると、Picoの動作周波数[Mhz]が文字列で格納される ex)"125"
       5F12                         .pico_clock_mhz     ds  5+1 ; "(xxx)" + \0
                                
                                    ; 起動設定されているROMファイル名がPico側から格納される
       5F18                         .boot_rom_name      ds  13  ; "xxxxxxxx.xxx\0" (8+1+3+1)
                                
                                    ;Command
                                    ; .cmd にコマンドを書く前に 0 にしておくこと。.cmdにコマンドを書き込んだ後、
                                    ; ここに.cmdに書き込んだ値と同じ値が格納される
       5F25                         .cmd_res            ds  1   ; 
                                    ;
       5F26                         .cmds equ $
                                
                                ;----------
       5F26                     org MSXPICO_IF.cmds
       5F26                     MSXPICO_IF_BASE:
       5F26                         .code                   ds  1       ; IFCMD.*
       5F27                         .cmd_value              ds  1       ; 
       5F28                         .end                    equ $
                                
       5F26                     org MSXPICO_IF.cmds
       5F26                     MSXPICO_IF_UPDATE_FILELIST:
       5F26                         .code                   ds  1       ; IFCMD.REQ_FILELIST
       5F27                         .action                 ds  1       ; 0固定
                                    ;以下はpico->msx
       5F28                         .status                 ds  1       ; 0:no sd card, !0:files
       5F29                         .total_num_files        ds  2       ; 総ファイル数
       5F2B                         .end                    equ $
                                
       5F26                     org MSXPICO_IF.cmds
       5F26                     MSXPICO_IF_REQ_FILELIST:
       5F26                         .code                   ds  1       ; IFCMD.REQ_FILELIST
       5F27                         .action                 ds  1       ; 不使用
       5F28                         .req_topno              ds  2       ; 先頭ファイル番号
                                    ;以下はpico->msx
       5F2A                         .status                 ds  1       ; 0:no sd card, !0:files
       5F2B                         .padding1               ds  1       ; 不使用
       5F2C                         .padding2               ds  1       ; 不使用
       5F2D                         .files                  ds  SIZE_FILERECORD*3*18    ; MSXPICOIF_FILERECORD[3列*18行]
       62F9                         .end                    equ $
                                
       5F26                     org MSXPICO_IF.cmds
       5F26                     MSXPICO_IF_STR_SET_ROM:
       5F26                         .code                   ds  1       ; IFCMD.SET_ROM
       5F27                         .file_no                ds  1       ; 選択ファイル番号 0:選択無し 1～:ROMファイル番号
       5F28                         .boot_rom_type          ds  1       ; ROM TYPE
       5F29                         .end                    equ $
                                
       5F26                     org MSXPICO_IF.cmds
       5F26                     MSXPICO_IF_STR_DEL_ROMFILE:
       5F26                         .code                   ds  1       ; IFCMD.DEL_ROMFILE
       5F27                         .file_no                ds  1       ; 削除したいROMファイル番号 1～
       5F28                         .end                    equ $
                                
       5F26                     org MSXPICO_IF.cmds
       5F26                     MSXPICO_IF_STR_WR_FILE:
       2000                         .BLOCK_SIZE             equ 0x2000
       5F26                         .code                   ds  1           ; IFCMD.WR_FILE
       5F27                         .block_no               ds  1           ; 0x2000サイズ単位のブロック番号 0～
       5F28                         .cmd_fwr_fspec          ds  8+1         ; 保存ファイル名（拡張子無し）
       5F31                         .block_data             ds  .BLOCK_SIZE ; ブロックデータ
       7F31                         .end                    equ $
                                
       5F26                     org MSXPICO_IF.cmds
       5F26                     MSXPICO_IF_STR_BAS2ROM:
       5F26                         .code                   ds  1       ; IFCMD.BAS2ROM
       5F27                         .file_no                ds  1       ; ROMファイルに変換したいBASファイルの番号 1～
       5F28                         .cmd_fwr_fspec          ds  8+1     ; 保存ファイル名（拡張子無し）
       5F31                         .end                    equ $
                                
       5F26                     org MSXPICO_IF.cmds
       5F26                     MSXPICO_IF_STR_STORE_ROM:
       2000                         .BLOCK_SIZE             equ 0x2000
       5F26                         .code                   ds  1           ; IFCMD.STORE_ROM
       5F27                         .file_no                ds  1           ; ROMへ書き込みたいROMファイルの番号 1～
       5F28                         .block_no               ds  1           ; 0x2000サイズ単位のブロック番号 0～
                                    ;以下はpico->msx
       5F29                         .err_no                 ds  1           ; 0:ファイル読み込みOK、1:何らかの理由で読み込みできず
       5F2A                         .str_num_total_block    ds  1           ; ファイル全体のブロック数
       5F2B                         .str_block              ds  1           ; 0:要求されたブロックは無し、1:有り
       5F2C                         .str_block_data         ds  .BLOCK_SIZE ; ブロックデータ
       7F2C                         .end                    equ $
                                
       5F26                     org MSXPICO_IF.cmds
       5F26                     MSXPICO_IF_STR_SET_FREQ:
       5F26                         .code                   ds  1       ; IFCMD.SET_FREQ
       5F27                         .freq_mhz               ds  1       ; 周波数MHz 125～300MHz
       5F28                         .end                    equ $
                                
       5F26                     org MSXPICO_IF.cmds
       5F26                     MSXPICO_IF_STR_CLEAR_EPAPER:
       5F26                         .code                   ds  1       ; IFCMD.CLEAR_E_PAPER
       5F27                         .cmd_value              ds  1       ; no use
       5F28                         .end                    equ $
                                
                                
[EOF:ct-ark2.z80:UTF_8]
